	.file	"m68k-elf.c"
| GNU C (GCC) version 4.9.4 (m68k-elf)
|	compiled by GNU C version 4.8.5, GMP version 6.1.2, MPFR version 3.1.5, MPC version 1.0.3
| GGC heuristics: --param ggc-min-expand=100 --param ggc-min-heapsize=131072
| options passed:  -nostdinc m68k-elf.c -mcpu=68020
| -auxbase-strip m68k-elf.s -g -O -Wall -fno-builtin -fverbose-asm
| -fomit-frame-pointer -fno-inline
| options enabled:  -faggressive-loop-optimizations -fauto-inc-dec
| -fbranch-count-reg -fcombine-stack-adjustments -fcommon -fcompare-elim
| -fcprop-registers -fdefer-pop -fdelete-null-pointer-checks
| -fdwarf2-cfi-asm -fearly-inlining -feliminate-unused-debug-types
| -fforward-propagate -ffunction-cse -fgcse-lm -fgnu-runtime -fgnu-unique
| -fguess-branch-probability -fident -fif-conversion -fif-conversion2
| -finline-atomics -finline-functions-called-once -fipa-profile
| -fipa-pure-const -fipa-reference -fira-hoist-pressure
| -fira-share-save-slots -fira-share-spill-slots -fivopts
| -fkeep-static-consts -fleading-underscore -flifetime-dse -fmath-errno
| -fmerge-constants -fmerge-debug-strings -fmove-loop-invariants
| -fomit-frame-pointer -fpeephole -fprefetch-loop-arrays
| -freg-struct-return -fsched-critical-path-heuristic
| -fsched-dep-count-heuristic -fsched-group-heuristic -fsched-interblock
| -fsched-last-insn-heuristic -fsched-rank-heuristic -fsched-spec
| -fsched-spec-insn-heuristic -fsched-stalled-insns-dep -fshow-column
| -fshrink-wrap -fsigned-zeros -fsplit-ivs-in-unroller -fsplit-wide-types
| -fstrict-volatile-bitfields -fsync-libcalls -ftoplevel-reorder
| -ftrapping-math -ftree-bit-ccp -ftree-ccp -ftree-ch -ftree-coalesce-vars
| -ftree-copy-prop -ftree-copyrename -ftree-dce -ftree-dominator-opts
| -ftree-dse -ftree-forwprop -ftree-fre -ftree-loop-if-convert
| -ftree-loop-im -ftree-loop-ivcanon -ftree-loop-optimize
| -ftree-parallelize-loops= -ftree-phiprop -ftree-pta -ftree-reassoc
| -ftree-scev-cprop -ftree-sink -ftree-slsr -ftree-sra -ftree-ter
| -funit-at-a-time -fvar-tracking -fvar-tracking-assignments -fverbose-asm
| -fzero-initialized-in-bss -mbitfield -mstrict-align

	.text
.Ltext0:
	.cfi_sections	.debug_frame
	.align	2
	.globl	null
	.type	null, @function
null:
.LFB0:
	.file 1 "m68k-elf.c"
	.loc 1 2 0
	.cfi_startproc
	rts
	.cfi_endproc
.LFE0:
	.size	null, .-null
	.align	2
	.globl	return_zero
	.type	return_zero, @function
return_zero:
.LFB1:
	.loc 1 7 0
	.cfi_startproc
	.loc 1 9 0
	clr.l %d0	|
	rts
	.cfi_endproc
.LFE1:
	.size	return_zero, .-return_zero
	.align	2
	.globl	return_one
	.type	return_one, @function
return_one:
.LFB2:
	.loc 1 12 0
	.cfi_startproc
	.loc 1 14 0
	moveq #1,%d0	|,
	rts
	.cfi_endproc
.LFE2:
	.size	return_one, .-return_one
	.align	2
	.globl	return_int_size
	.type	return_int_size, @function
return_int_size:
.LFB3:
	.loc 1 17 0
	.cfi_startproc
	.loc 1 19 0
	moveq #4,%d0	|,
	rts
	.cfi_endproc
.LFE3:
	.size	return_int_size, .-return_int_size
	.align	2
	.globl	return_pointer_size
	.type	return_pointer_size, @function
return_pointer_size:
.LFB4:
	.loc 1 22 0
	.cfi_startproc
	.loc 1 24 0
	moveq #4,%d0	|,
	rts
	.cfi_endproc
.LFE4:
	.size	return_pointer_size, .-return_pointer_size
	.align	2
	.globl	return_short_size
	.type	return_short_size, @function
return_short_size:
.LFB5:
	.loc 1 27 0
	.cfi_startproc
	.loc 1 29 0
	moveq #2,%d0	|,
	rts
	.cfi_endproc
.LFE5:
	.size	return_short_size, .-return_short_size
	.align	2
	.globl	return_long_size
	.type	return_long_size, @function
return_long_size:
.LFB6:
	.loc 1 32 0
	.cfi_startproc
	.loc 1 34 0
	moveq #4,%d0	|,
	rts
	.cfi_endproc
.LFE6:
	.size	return_long_size, .-return_long_size
	.align	2
	.globl	return_short
	.type	return_short, @function
return_short:
.LFB7:
	.loc 1 37 0
	.cfi_startproc
	.loc 1 39 0
	move.w #30600,%d0	|,
	rts
	.cfi_endproc
.LFE7:
	.size	return_short, .-return_short
	.align	2
	.globl	return_long
	.type	return_long, @function
return_long:
.LFB8:
	.loc 1 42 0
	.cfi_startproc
	.loc 1 44 0
	move.l #2005440938,%d0	|,
	rts
	.cfi_endproc
.LFE8:
	.size	return_long, .-return_long
	.align	2
	.globl	return_short_upper
	.type	return_short_upper, @function
return_short_upper:
.LFB9:
	.loc 1 47 0
	.cfi_startproc
	.loc 1 49 0
	moveq #-18,%d0	|,
	rts
	.cfi_endproc
.LFE9:
	.size	return_short_upper, .-return_short_upper
	.align	2
	.globl	return_long_upper
	.type	return_long_upper, @function
return_long_upper:
.LFB10:
	.loc 1 52 0
	.cfi_startproc
	.loc 1 54 0
	move.l #-1122868,%d0	|,
	rts
	.cfi_endproc
.LFE10:
	.size	return_long_upper, .-return_long_upper
	.align	2
	.globl	return_arg1
	.type	return_arg1, @function
return_arg1:
.LFB11:
	.loc 1 57 0
	.cfi_startproc
.LVL0:
	.loc 1 59 0
	move.l 4(%sp),%d0	| a,
	rts
	.cfi_endproc
.LFE11:
	.size	return_arg1, .-return_arg1
	.align	2
	.globl	return_arg2
	.type	return_arg2, @function
return_arg2:
.LFB12:
	.loc 1 62 0
	.cfi_startproc
.LVL1:
	.loc 1 64 0
	move.l 8(%sp),%d0	| b,
	rts
	.cfi_endproc
.LFE12:
	.size	return_arg2, .-return_arg2
	.align	2
	.globl	add
	.type	add, @function
add:
.LFB13:
	.loc 1 67 0
	.cfi_startproc
.LVL2:
	.loc 1 69 0
	move.l 4(%sp),%d0	| a,
	add.l 8(%sp),%d0	| b,
	rts
	.cfi_endproc
.LFE13:
	.size	add, .-add
	.align	2
	.globl	add3
	.type	add3, @function
add3:
.LFB14:
	.loc 1 72 0
	.cfi_startproc
.LVL3:
	.loc 1 73 0
	move.l 4(%sp),%d0	| a, D.1189
	add.l 8(%sp),%d0	| b, D.1189
	.loc 1 74 0
	add.l 12(%sp),%d0	| c,
	rts
	.cfi_endproc
.LFE14:
	.size	add3, .-add3
	.align	2
	.globl	add_two
	.type	add_two, @function
add_two:
.LFB15:
	.loc 1 77 0
	.cfi_startproc
.LVL4:
	.loc 1 79 0
	move.l 4(%sp),%d0	| a,
	addq.l #2,%d0	|,
	rts
	.cfi_endproc
.LFE15:
	.size	add_two, .-add_two
	.align	2
	.globl	inc
	.type	inc, @function
inc:
.LFB16:
	.loc 1 82 0
	.cfi_startproc
.LVL5:
	.loc 1 84 0
	move.l 4(%sp),%d0	| a,
	addq.l #1,%d0	|,
.LVL6:
	rts
	.cfi_endproc
.LFE16:
	.size	inc, .-inc
	.align	2
	.globl	or
	.type	or, @function
or:
.LFB17:
	.loc 1 87 0
	.cfi_startproc
.LVL7:
	.loc 1 89 0
	move.l 4(%sp),%d0	| a,
	or.l 8(%sp),%d0	| b,
	rts
	.cfi_endproc
.LFE17:
	.size	or, .-or
	.align	2
	.globl	or_one
	.type	or_one, @function
or_one:
.LFB18:
	.loc 1 92 0
	.cfi_startproc
.LVL8:
	.loc 1 94 0
	moveq #1,%d0	|,
	or.l 4(%sp),%d0	| a,
	rts
	.cfi_endproc
.LFE18:
	.size	or_one, .-or_one
	.align	2
	.globl	load
	.type	load, @function
load:
.LFB19:
	.loc 1 97 0
	.cfi_startproc
.LVL9:
	.loc 1 98 0
	move.l 4(%sp),%a0	| p, p
	move.l (%a0),%d0	| *p_2(D), D.1198
	.loc 1 99 0
	rts
	.cfi_endproc
.LFE19:
	.size	load, .-load
	.align	2
	.globl	store
	.type	store, @function
store:
.LFB20:
	.loc 1 102 0
	.cfi_startproc
.LVL10:
	.loc 1 103 0
	move.l 4(%sp),%a0	| p, p
	move.l #255,(%a0)	|, *p_2(D)
	rts
	.cfi_endproc
.LFE20:
	.size	store, .-store
	.align	2
	.globl	load_long
	.type	load_long, @function
load_long:
.LFB21:
	.loc 1 107 0
	.cfi_startproc
.LVL11:
	.loc 1 108 0
	move.l 4(%sp),%a0	| p, p
	move.l (%a0),%d0	| *p_2(D), D.1201
	.loc 1 109 0
	rts
	.cfi_endproc
.LFE21:
	.size	load_long, .-load_long
	.align	2
	.globl	store_long
	.type	store_long, @function
store_long:
.LFB22:
	.loc 1 112 0
	.cfi_startproc
.LVL12:
	.loc 1 113 0
	move.l 4(%sp),%a0	| p, p
	move.l #287454020,(%a0)	|, *p_2(D)
	rts
	.cfi_endproc
.LFE22:
	.size	store_long, .-store_long
	.align	2
	.globl	member
	.type	member, @function
member:
.LFB23:
	.loc 1 123 0
	.cfi_startproc
.LVL13:
	move.l 4(%sp),%a0	| p, p
	.loc 1 124 0
	moveq #1,%d0	|,
	move.l %d0,4(%a0)	|, p_2(D)->b
	.loc 1 126 0
	move.l 8(%a0),%d0	| p_2(D)->c,
	rts
	.cfi_endproc
.LFE23:
	.size	member, .-member
	.align	2
	.globl	get_static_value_addr
	.type	get_static_value_addr, @function
get_static_value_addr:
.LFB24:
	.loc 1 132 0
	.cfi_startproc
	.loc 1 134 0
	move.l #static_value,%d0	|,
	rts
	.cfi_endproc
.LFE24:
	.size	get_static_value_addr, .-get_static_value_addr
	.align	2
	.globl	get_static_value
	.type	get_static_value, @function
get_static_value:
.LFB25:
	.loc 1 137 0
	.cfi_startproc
	.loc 1 139 0
	move.l static_value,%d0	| static_value,
	rts
	.cfi_endproc
.LFE25:
	.size	get_static_value, .-get_static_value
	.align	2
	.globl	set_static_value
	.type	set_static_value, @function
set_static_value:
.LFB26:
	.loc 1 142 0
	.cfi_startproc
.LVL14:
	.loc 1 143 0
	move.l 4(%sp),static_value	| a, static_value
	rts
	.cfi_endproc
.LFE26:
	.size	set_static_value, .-set_static_value
	.align	2
	.globl	set_stack
	.type	set_stack, @function
set_stack:
.LFB27:
	.loc 1 149 0
	.cfi_startproc
	subq.l #8,%sp	|,
	.cfi_def_cfa_offset 12
	.loc 1 150 0
	move.l #254,4(%sp)	|, a
	.loc 1 151 0
	move.l #255,(%sp)	|, b
	.loc 1 152 0
	addq.l #8,%sp	|,
	rts
	.cfi_endproc
.LFE27:
	.size	set_stack, .-set_stack
	.align	2
	.globl	use_stack
	.type	use_stack, @function
use_stack:
.LFB28:
	.loc 1 155 0
	.cfi_startproc
	subq.l #8,%sp	|,
	.cfi_def_cfa_offset 12
	.loc 1 156 0
	move.l #254,4(%sp)	|, a
	.loc 1 157 0
	move.l #255,(%sp)	|, b
	.loc 1 158 0
	move.l 4(%sp),%d1	| a, D.1211
	move.l (%sp),%d0	| b, D.1211
	.loc 1 159 0
	add.l %d1,%d0	| D.1211,
	addq.l #8,%sp	|,
	rts
	.cfi_endproc
.LFE28:
	.size	use_stack, .-use_stack
	.align	2
	.globl	call_self
	.type	call_self, @function
call_self:
.LFB29:
	.loc 1 162 0
	.cfi_startproc
	.loc 1 163 0
	jsr call_self	|
.LVL15:
	rts
	.cfi_endproc
.LFE29:
	.size	call_self, .-call_self
	.align	2
	.globl	call_simple
	.type	call_simple, @function
call_simple:
.LFB30:
	.loc 1 167 0
	.cfi_startproc
.LVL16:
	.loc 1 168 0
	move.l 4(%sp),-(%sp)	| a,
	.cfi_def_cfa_offset 8
	jsr return_arg1	|
.LVL17:
	addq.l #4,%sp	|,
	.cfi_def_cfa_offset 4
	.loc 1 169 0
	rts
	.cfi_endproc
.LFE30:
	.size	call_simple, .-call_simple
	.align	2
	.globl	call_complex1
	.type	call_complex1, @function
call_complex1:
.LFB31:
	.loc 1 172 0
	.cfi_startproc
	.loc 1 173 0
	pea 254.w	|
	.cfi_def_cfa_offset 8
	jsr return_arg1	|
.LVL18:
	addq.l #4,%sp	|,
	.cfi_def_cfa_offset 4
	.loc 1 174 0
	addq.l #1,%d0	|,
	rts
	.cfi_endproc
.LFE31:
	.size	call_complex1, .-call_complex1
	.align	2
	.globl	call_complex2
	.type	call_complex2, @function
call_complex2:
.LFB32:
	.loc 1 177 0
	.cfi_startproc
.LVL19:
	move.l %d2,-(%sp)	|,
	.cfi_def_cfa_offset 8
	.cfi_offset 2, -8
	move.l 12(%sp),%d2	| b, b
	.loc 1 178 0
	move.l %d2,-(%sp)	| b,
	.cfi_def_cfa_offset 12
	jsr return_arg1	|
.LVL20:
	addq.l #4,%sp	|,
	.cfi_def_cfa_offset 8
	move.l %d0,static_value	|, static_value
	.loc 1 180 0
	move.l %d2,%d0	| b,
	move.l (%sp)+,%d2	|,
	rts
	.cfi_endproc
.LFE32:
	.size	call_complex2, .-call_complex2
	.align	2
	.globl	call_pointer
	.type	call_pointer, @function
call_pointer:
.LFB33:
	.loc 1 183 0
	.cfi_startproc
.LVL21:
	.loc 1 184 0
	move.l 4(%sp),%a0	| f, f
	jsr (%a0)	| f
.LVL22:
	rts
	.cfi_endproc
.LFE33:
	.size	call_pointer, .-call_pointer
	.align	2
	.globl	condition
	.type	condition, @function
condition:
.LFB34:
	.loc 1 188 0
	.cfi_startproc
.LVL23:
	move.l 8(%sp),%d0	| b, b
	.loc 1 189 0
	cmp.l 4(%sp),%d0	| a, b
	jne .L36	|
	.loc 1 190 0
	moveq #1,%d0	|, b
.L36:
.LVL24:
	.loc 1 192 0
	addq.l #1,%d0	|,
.LVL25:
	rts
	.cfi_endproc
.LFE34:
	.size	condition, .-condition
	.align	2
	.globl	loop
	.type	loop, @function
loop:
.LFB35:
	.loc 1 195 0
	.cfi_startproc
.LVL26:
	move.l 4(%sp),%a0	| n, n
.LVL27:
	.loc 1 197 0
	tst.l %a0	| n
	jle .L40	|
	clr.l %d0	| sum
	clr.l %d1	| i
.LVL28:
.L39:
	.loc 1 198 0 discriminator 3
	add.l %d1,%d0	| i, sum
.LVL29:
	.loc 1 197 0 discriminator 3
	addq.l #1,%d1	|, i
.LVL30:
	cmp.l %d1,%a0	| i, n
	jne .L39	|
	rts
.LVL31:
.L40:
	.loc 1 196 0
	clr.l %d0	| sum
	.loc 1 200 0
	rts
	.cfi_endproc
.LFE35:
	.size	loop, .-loop
	.align	2
	.globl	many_args
	.type	many_args, @function
many_args:
.LFB36:
	.loc 1 204 0
	.cfi_startproc
.LVL32:
	.loc 1 205 0
	move.l 4(%sp),%d0	| a0, D.1227
	add.l 16(%sp),%d0	| a3, D.1227
	add.l 24(%sp),%d0	| a5, D.1227
	.loc 1 206 0
	add.l 32(%sp),%d0	| a7,
	rts
	.cfi_endproc
.LFE36:
	.size	many_args, .-many_args
	.align	2
	.globl	call_many_args
	.type	call_many_args, @function
call_many_args:
.LFB37:
	.loc 1 209 0
	.cfi_startproc
	.loc 1 210 0
	pea 7.w	|
	.cfi_def_cfa_offset 8
	pea 6.w	|
	.cfi_def_cfa_offset 12
	pea 5.w	|
	.cfi_def_cfa_offset 16
	pea 4.w	|
	.cfi_def_cfa_offset 20
	pea 3.w	|
	.cfi_def_cfa_offset 24
	pea 2.w	|
	.cfi_def_cfa_offset 28
	pea 1.w	|
	.cfi_def_cfa_offset 32
	clr.l -(%sp)	|
	.cfi_def_cfa_offset 36
	jsr many_args	|
.LVL33:
	lea (32,%sp),%sp	|,
	.cfi_def_cfa_offset 4
	.loc 1 211 0
	rts
	.cfi_endproc
.LFE37:
	.size	call_many_args, .-call_many_args
	.align	2
	.globl	direct
	.type	direct, @function
direct:
.LFB38:
	.loc 1 215 0
	.cfi_startproc
	.loc 1 216 0
#APP
| 216 "m68k-elf.c" 1
	nop
| 0 "" 2
#NO_APP
	rts
	.cfi_endproc
.LFE38:
	.size	direct, .-direct
	.align	2
	.globl	binary
	.type	binary, @function
binary:
.LFB39:
	.loc 1 223 0
	.cfi_startproc
	.loc 1 224 0
#APP
| 224 "m68k-elf.c" 1
	.align 4
| 0 "" 2
	.loc 1 225 0
| 225 "m68k-elf.c" 1
	.int 0x0
| 0 "" 2
#NO_APP
	rts
	.cfi_endproc
.LFE39:
	.size	binary, .-binary
	.align	2
	.globl	main
	.type	main, @function
main:
.LFB40:
	.loc 1 231 0
	.cfi_startproc
	.loc 1 233 0
	clr.l %d0	|
	rts
	.cfi_endproc
.LFE40:
	.size	main, .-main
	.globl	static_long
	.data
	.align	2
	.type	static_long, @object
	.size	static_long, 4
static_long:
	.long	305419896
	.globl	static_value
	.align	2
	.type	static_value, @object
	.size	static_value, 4
static_value:
	.long	10
	.text
.Letext0: