	.file	"nios2-elf.c"
#  GNU C (GCC) version 4.9.4 (nios2-elf)
# 	compiled by GNU C version 4.8.5, GMP version 6.1.2, MPFR version 3.1.5, MPC version 1.0.3
#  GGC heuristics: --param ggc-min-expand=100 --param ggc-min-heapsize=131072
#  options passed:  -nostdinc nios2-elf.c -auxbase-strip nios2-elf.s -g -O
#  -Wall -fno-builtin -fverbose-asm -fomit-frame-pointer -fno-inline
#  options enabled:  -faggressive-loop-optimizations -fauto-inc-dec
#  -fbranch-count-reg -fcombine-stack-adjustments -fcommon -fcompare-elim
#  -fcprop-registers -fdefer-pop -fdelete-null-pointer-checks
#  -fdwarf2-cfi-asm -fearly-inlining -feliminate-unused-debug-types
#  -fforward-propagate -ffunction-cse -fgcse-lm -fgnu-runtime -fgnu-unique
#  -fguess-branch-probability -fident -fif-conversion -fif-conversion2
#  -finline-atomics -finline-functions-called-once -fipa-profile
#  -fipa-pure-const -fipa-reference -fira-hoist-pressure
#  -fira-share-save-slots -fira-share-spill-slots -fivopts
#  -fkeep-static-consts -fleading-underscore -flifetime-dse -fmath-errno
#  -fmerge-constants -fmerge-debug-strings -fmove-loop-invariants
#  -fomit-frame-pointer -fpeephole -fprefetch-loop-arrays
#  -freg-struct-return -fsched-critical-path-heuristic
#  -fsched-dep-count-heuristic -fsched-group-heuristic -fsched-interblock
#  -fsched-last-insn-heuristic -fsched-rank-heuristic -fsched-spec
#  -fsched-spec-insn-heuristic -fsched-stalled-insns-dep -fshow-column
#  -fshrink-wrap -fsigned-zeros -fsplit-ivs-in-unroller -fsplit-wide-types
#  -fstrict-volatile-bitfields -fsync-libcalls -ftoplevel-reorder
#  -ftrapping-math -ftree-bit-ccp -ftree-ccp -ftree-ch -ftree-coalesce-vars
#  -ftree-copy-prop -ftree-copyrename -ftree-dce -ftree-dominator-opts
#  -ftree-dse -ftree-forwprop -ftree-fre -ftree-loop-if-convert
#  -ftree-loop-im -ftree-loop-ivcanon -ftree-loop-optimize
#  -ftree-parallelize-loops= -ftree-phiprop -ftree-pta -ftree-reassoc
#  -ftree-scev-cprop -ftree-sink -ftree-slsr -ftree-sra -ftree-ter
#  -funit-at-a-time -fvar-tracking -fvar-tracking-assignments -fverbose-asm
#  -fzero-initialized-in-bss -mcache-volatile -mcustom-fabsd=
#  -mcustom-fabss= -mcustom-faddd= -mcustom-fadds= -mcustom-fatand=
#  -mcustom-fatans= -mcustom-fcmpeqd= -mcustom-fcmpeqs= -mcustom-fcmpged=
#  -mcustom-fcmpges= -mcustom-fcmpgtd= -mcustom-fcmpgts= -mcustom-fcmpled=
#  -mcustom-fcmples= -mcustom-fcmpltd= -mcustom-fcmplts= -mcustom-fcmpned=
#  -mcustom-fcmpnes= -mcustom-fcosd= -mcustom-fcoss= -mcustom-fdivd=
#  -mcustom-fdivs= -mcustom-fexpd= -mcustom-fexps= -mcustom-fextsd=
#  -mcustom-fixdi= -mcustom-fixdu= -mcustom-fixsi= -mcustom-fixsu=
#  -mcustom-floatid= -mcustom-floatis= -mcustom-floatud= -mcustom-floatus=
#  -mcustom-flogd= -mcustom-flogs= -mcustom-fmaxd= -mcustom-fmaxs=
#  -mcustom-fmind= -mcustom-fmins= -mcustom-fmuld= -mcustom-fmuls=
#  -mcustom-fnegd= -mcustom-fnegs= -mcustom-frdxhi= -mcustom-frdxlo=
#  -mcustom-frdy= -mcustom-fsind= -mcustom-fsins= -mcustom-fsqrtd=
#  -mcustom-fsqrts= -mcustom-fsubd= -mcustom-fsubs= -mcustom-ftand=
#  -mcustom-ftans= -mcustom-ftruncds= -mcustom-fwrx= -mcustom-fwry= -mel
#  -mgpopt -mhw-mul -mno-custom-fabsd -mno-custom-fabss -mno-custom-faddd
#  -mno-custom-fadds -mno-custom-fatand -mno-custom-fatans
#  -mno-custom-fcmpeqd -mno-custom-fcmpeqs -mno-custom-fcmpged
#  -mno-custom-fcmpges -mno-custom-fcmpgtd -mno-custom-fcmpgts
#  -mno-custom-fcmpled -mno-custom-fcmples -mno-custom-fcmpltd
#  -mno-custom-fcmplts -mno-custom-fcmpned -mno-custom-fcmpnes
#  -mno-custom-fcosd -mno-custom-fcoss -mno-custom-fdivd -mno-custom-fdivs
#  -mno-custom-fexpd -mno-custom-fexps -mno-custom-fextsd -mno-custom-fixdi
#  -mno-custom-fixdu -mno-custom-fixsi -mno-custom-fixsu
#  -mno-custom-floatid -mno-custom-floatis -mno-custom-floatud
#  -mno-custom-floatus -mno-custom-flogd -mno-custom-flogs
#  -mno-custom-fmaxd -mno-custom-fmaxs -mno-custom-fmind -mno-custom-fmins
#  -mno-custom-fmuld -mno-custom-fmuls -mno-custom-fnegd -mno-custom-fnegs
#  -mno-custom-frdxhi -mno-custom-frdxlo -mno-custom-frdy -mno-custom-fsind
#  -mno-custom-fsins -mno-custom-fsqrtd -mno-custom-fsqrts
#  -mno-custom-fsubd -mno-custom-fsubs -mno-custom-ftand -mno-custom-ftans
#  -mno-custom-ftruncds -mno-custom-fwrx -mno-custom-fwry

	.section	.text
.Ltext0:
	.cfi_sections	.debug_frame
	.align	2
	.global	null
	.type	null, @function
null:
.LFB0:
	.file 1 "nios2-elf.c"
	.loc 1 2 0
	.cfi_startproc
	#  Current Frame Info
	#  total_size = 0
	#  var_size = 0
	#  args_size = 0
	#  save_reg_size = 0
	#  initialized = 1
	#  save_regs_offset = 0
	#  is_leaf = 1
	#  frame_pointer_needed = 0
	#  pretend_args_size = 0
	ret
	.cfi_endproc
.LFE0:
	.size	null, .-null
	.align	2
	.global	return_zero
	.type	return_zero, @function
return_zero:
.LFB1:
	.loc 1 7 0
	.cfi_startproc
	#  Current Frame Info
	#  total_size = 0
	#  var_size = 0
	#  args_size = 0
	#  save_reg_size = 0
	#  initialized = 1
	#  save_regs_offset = 0
	#  is_leaf = 1
	#  frame_pointer_needed = 0
	#  pretend_args_size = 0
	.loc 1 9 0
	mov	r2, zero	# ,
	ret
	.cfi_endproc
.LFE1:
	.size	return_zero, .-return_zero
	.align	2
	.global	return_one
	.type	return_one, @function
return_one:
.LFB2:
	.loc 1 12 0
	.cfi_startproc
	#  Current Frame Info
	#  total_size = 0
	#  var_size = 0
	#  args_size = 0
	#  save_reg_size = 0
	#  initialized = 1
	#  save_regs_offset = 0
	#  is_leaf = 1
	#  frame_pointer_needed = 0
	#  pretend_args_size = 0
	.loc 1 14 0
	movi	r2, 1	# ,
	ret
	.cfi_endproc
.LFE2:
	.size	return_one, .-return_one
	.align	2
	.global	return_int_size
	.type	return_int_size, @function
return_int_size:
.LFB3:
	.loc 1 17 0
	.cfi_startproc
	#  Current Frame Info
	#  total_size = 0
	#  var_size = 0
	#  args_size = 0
	#  save_reg_size = 0
	#  initialized = 1
	#  save_regs_offset = 0
	#  is_leaf = 1
	#  frame_pointer_needed = 0
	#  pretend_args_size = 0
	.loc 1 19 0
	movi	r2, 4	# ,
	ret
	.cfi_endproc
.LFE3:
	.size	return_int_size, .-return_int_size
	.align	2
	.global	return_pointer_size
	.type	return_pointer_size, @function
return_pointer_size:
.LFB4:
	.loc 1 22 0
	.cfi_startproc
	#  Current Frame Info
	#  total_size = 0
	#  var_size = 0
	#  args_size = 0
	#  save_reg_size = 0
	#  initialized = 1
	#  save_regs_offset = 0
	#  is_leaf = 1
	#  frame_pointer_needed = 0
	#  pretend_args_size = 0
	.loc 1 24 0
	movi	r2, 4	# ,
	ret
	.cfi_endproc
.LFE4:
	.size	return_pointer_size, .-return_pointer_size
	.align	2
	.global	return_short_size
	.type	return_short_size, @function
return_short_size:
.LFB5:
	.loc 1 27 0
	.cfi_startproc
	#  Current Frame Info
	#  total_size = 0
	#  var_size = 0
	#  args_size = 0
	#  save_reg_size = 0
	#  initialized = 1
	#  save_regs_offset = 0
	#  is_leaf = 1
	#  frame_pointer_needed = 0
	#  pretend_args_size = 0
	.loc 1 29 0
	movi	r2, 2	# ,
	ret
	.cfi_endproc
.LFE5:
	.size	return_short_size, .-return_short_size
	.align	2
	.global	return_long_size
	.type	return_long_size, @function
return_long_size:
.LFB6:
	.loc 1 32 0
	.cfi_startproc
	#  Current Frame Info
	#  total_size = 0
	#  var_size = 0
	#  args_size = 0
	#  save_reg_size = 0
	#  initialized = 1
	#  save_regs_offset = 0
	#  is_leaf = 1
	#  frame_pointer_needed = 0
	#  pretend_args_size = 0
	.loc 1 34 0
	movi	r2, 4	# ,
	ret
	.cfi_endproc
.LFE6:
	.size	return_long_size, .-return_long_size
	.align	2
	.global	return_short
	.type	return_short, @function
return_short:
.LFB7:
	.loc 1 37 0
	.cfi_startproc
	#  Current Frame Info
	#  total_size = 0
	#  var_size = 0
	#  args_size = 0
	#  save_reg_size = 0
	#  initialized = 1
	#  save_regs_offset = 0
	#  is_leaf = 1
	#  frame_pointer_needed = 0
	#  pretend_args_size = 0
	.loc 1 39 0
	movi	r2, 30600	# ,
	ret
	.cfi_endproc
.LFE7:
	.size	return_short, .-return_short
	.align	2
	.global	return_long
	.type	return_long, @function
return_long:
.LFB8:
	.loc 1 42 0
	.cfi_startproc
	#  Current Frame Info
	#  total_size = 0
	#  var_size = 0
	#  args_size = 0
	#  save_reg_size = 0
	#  initialized = 1
	#  save_regs_offset = 0
	#  is_leaf = 1
	#  frame_pointer_needed = 0
	#  pretend_args_size = 0
	.loc 1 44 0
	movhi	r2, %hiadj(2005440938)	# ,
	addi	r2, r2, %lo(2005440938)	# ,
	ret
	.cfi_endproc
.LFE8:
	.size	return_long, .-return_long
	.align	2
	.global	return_short_upper
	.type	return_short_upper, @function
return_short_upper:
.LFB9:
	.loc 1 47 0
	.cfi_startproc
	#  Current Frame Info
	#  total_size = 0
	#  var_size = 0
	#  args_size = 0
	#  save_reg_size = 0
	#  initialized = 1
	#  save_regs_offset = 0
	#  is_leaf = 1
	#  frame_pointer_needed = 0
	#  pretend_args_size = 0
	.loc 1 49 0
	movi	r2, -18	# ,
	ret
	.cfi_endproc
.LFE9:
	.size	return_short_upper, .-return_short_upper
	.align	2
	.global	return_long_upper
	.type	return_long_upper, @function
return_long_upper:
.LFB10:
	.loc 1 52 0
	.cfi_startproc
	#  Current Frame Info
	#  total_size = 0
	#  var_size = 0
	#  args_size = 0
	#  save_reg_size = 0
	#  initialized = 1
	#  save_regs_offset = 0
	#  is_leaf = 1
	#  frame_pointer_needed = 0
	#  pretend_args_size = 0
	.loc 1 54 0
	movhi	r2, %hiadj(-1122868)	# ,
	addi	r2, r2, %lo(-1122868)	# ,
	ret
	.cfi_endproc
.LFE10:
	.size	return_long_upper, .-return_long_upper
	.align	2
	.global	return_arg1
	.type	return_arg1, @function
return_arg1:
.LFB11:
	.loc 1 57 0
	.cfi_startproc
	#  Current Frame Info
	#  total_size = 0
	#  var_size = 0
	#  args_size = 0
	#  save_reg_size = 0
	#  initialized = 1
	#  save_regs_offset = 0
	#  is_leaf = 1
	#  frame_pointer_needed = 0
	#  pretend_args_size = 0
.LVL0:
	.loc 1 59 0
	mov	r2, r4	# , a
	ret
	.cfi_endproc
.LFE11:
	.size	return_arg1, .-return_arg1
	.align	2
	.global	return_arg2
	.type	return_arg2, @function
return_arg2:
.LFB12:
	.loc 1 62 0
	.cfi_startproc
	#  Current Frame Info
	#  total_size = 0
	#  var_size = 0
	#  args_size = 0
	#  save_reg_size = 0
	#  initialized = 1
	#  save_regs_offset = 0
	#  is_leaf = 1
	#  frame_pointer_needed = 0
	#  pretend_args_size = 0
.LVL1:
	.loc 1 64 0
	mov	r2, r5	# , b
	ret
	.cfi_endproc
.LFE12:
	.size	return_arg2, .-return_arg2
	.align	2
	.global	add
	.type	add, @function
add:
.LFB13:
	.loc 1 67 0
	.cfi_startproc
	#  Current Frame Info
	#  total_size = 0
	#  var_size = 0
	#  args_size = 0
	#  save_reg_size = 0
	#  initialized = 1
	#  save_regs_offset = 0
	#  is_leaf = 1
	#  frame_pointer_needed = 0
	#  pretend_args_size = 0
.LVL2:
	.loc 1 69 0
	add	r2, r4, r5	#  b,, a
	ret
	.cfi_endproc
.LFE13:
	.size	add, .-add
	.align	2
	.global	add3
	.type	add3, @function
add3:
.LFB14:
	.loc 1 72 0
	.cfi_startproc
	#  Current Frame Info
	#  total_size = 0
	#  var_size = 0
	#  args_size = 0
	#  save_reg_size = 0
	#  initialized = 1
	#  save_regs_offset = 0
	#  is_leaf = 1
	#  frame_pointer_needed = 0
	#  pretend_args_size = 0
.LVL3:
	.loc 1 73 0
	add	r2, r4, r5	#  b, D.1307, a
	.loc 1 74 0
	add	r2, r2, r6	#  c,, D.1307
	ret
	.cfi_endproc
.LFE14:
	.size	add3, .-add3
	.align	2
	.global	add_two
	.type	add_two, @function
add_two:
.LFB15:
	.loc 1 77 0
	.cfi_startproc
	#  Current Frame Info
	#  total_size = 0
	#  var_size = 0
	#  args_size = 0
	#  save_reg_size = 0
	#  initialized = 1
	#  save_regs_offset = 0
	#  is_leaf = 1
	#  frame_pointer_needed = 0
	#  pretend_args_size = 0
.LVL4:
	.loc 1 79 0
	addi	r2, r4, 2	# ,, a
	ret
	.cfi_endproc
.LFE15:
	.size	add_two, .-add_two
	.align	2
	.global	inc
	.type	inc, @function
inc:
.LFB16:
	.loc 1 82 0
	.cfi_startproc
	#  Current Frame Info
	#  total_size = 0
	#  var_size = 0
	#  args_size = 0
	#  save_reg_size = 0
	#  initialized = 1
	#  save_regs_offset = 0
	#  is_leaf = 1
	#  frame_pointer_needed = 0
	#  pretend_args_size = 0
.LVL5:
	.loc 1 84 0
	addi	r2, r4, 1	# ,, a
.LVL6:
	ret
	.cfi_endproc
.LFE16:
	.size	inc, .-inc
	.align	2
	.global	or
	.type	or, @function
or:
.LFB17:
	.loc 1 87 0
	.cfi_startproc
	#  Current Frame Info
	#  total_size = 0
	#  var_size = 0
	#  args_size = 0
	#  save_reg_size = 0
	#  initialized = 1
	#  save_regs_offset = 0
	#  is_leaf = 1
	#  frame_pointer_needed = 0
	#  pretend_args_size = 0
.LVL7:
	.loc 1 89 0
	or	r2, r4, r5	# , a, b
	ret
	.cfi_endproc
.LFE17:
	.size	or, .-or
	.align	2
	.global	or_one
	.type	or_one, @function
or_one:
.LFB18:
	.loc 1 92 0
	.cfi_startproc
	#  Current Frame Info
	#  total_size = 0
	#  var_size = 0
	#  args_size = 0
	#  save_reg_size = 0
	#  initialized = 1
	#  save_regs_offset = 0
	#  is_leaf = 1
	#  frame_pointer_needed = 0
	#  pretend_args_size = 0
.LVL8:
	.loc 1 94 0
	ori	r2, r4, 1	# ,, a
	ret
	.cfi_endproc
.LFE18:
	.size	or_one, .-or_one
	.align	2
	.global	load
	.type	load, @function
load:
.LFB19:
	.loc 1 97 0
	.cfi_startproc
	#  Current Frame Info
	#  total_size = 0
	#  var_size = 0
	#  args_size = 0
	#  save_reg_size = 0
	#  initialized = 1
	#  save_regs_offset = 0
	#  is_leaf = 1
	#  frame_pointer_needed = 0
	#  pretend_args_size = 0
.LVL9:
	.loc 1 98 0
	ldw	r2, 0(r4)	#  *p_2(D), D.1316
	.loc 1 99 0
	ret
	.cfi_endproc
.LFE19:
	.size	load, .-load
	.align	2
	.global	store
	.type	store, @function
store:
.LFB20:
	.loc 1 102 0
	.cfi_startproc
	#  Current Frame Info
	#  total_size = 0
	#  var_size = 0
	#  args_size = 0
	#  save_reg_size = 0
	#  initialized = 1
	#  save_regs_offset = 0
	#  is_leaf = 1
	#  frame_pointer_needed = 0
	#  pretend_args_size = 0
.LVL10:
	.loc 1 103 0
	movi	r2, 255	#  tmp47,
	stw	r2, 0(r4)	#  *p_2(D), tmp47
	ret
	.cfi_endproc
.LFE20:
	.size	store, .-store
	.align	2
	.global	load_long
	.type	load_long, @function
load_long:
.LFB21:
	.loc 1 107 0
	.cfi_startproc
	#  Current Frame Info
	#  total_size = 0
	#  var_size = 0
	#  args_size = 0
	#  save_reg_size = 0
	#  initialized = 1
	#  save_regs_offset = 0
	#  is_leaf = 1
	#  frame_pointer_needed = 0
	#  pretend_args_size = 0
.LVL11:
	.loc 1 108 0
	ldw	r2, 0(r4)	#  *p_2(D), D.1319
	.loc 1 109 0
	ret
	.cfi_endproc
.LFE21:
	.size	load_long, .-load_long
	.align	2
	.global	store_long
	.type	store_long, @function
store_long:
.LFB22:
	.loc 1 112 0
	.cfi_startproc
	#  Current Frame Info
	#  total_size = 0
	#  var_size = 0
	#  args_size = 0
	#  save_reg_size = 0
	#  initialized = 1
	#  save_regs_offset = 0
	#  is_leaf = 1
	#  frame_pointer_needed = 0
	#  pretend_args_size = 0
.LVL12:
	.loc 1 113 0
	movhi	r2, %hiadj(287454020)	#  tmp47,
	addi	r2, r2, %lo(287454020)	#  tmp47,
	stw	r2, 0(r4)	#  *p_2(D), tmp47
	ret
	.cfi_endproc
.LFE22:
	.size	store_long, .-store_long
	.align	2
	.global	member
	.type	member, @function
member:
.LFB23:
	.loc 1 123 0
	.cfi_startproc
	#  Current Frame Info
	#  total_size = 0
	#  var_size = 0
	#  args_size = 0
	#  save_reg_size = 0
	#  initialized = 1
	#  save_regs_offset = 0
	#  is_leaf = 1
	#  frame_pointer_needed = 0
	#  pretend_args_size = 0
.LVL13:
	.loc 1 124 0
	movi	r2, 1	#  tmp49,
	stw	r2, 4(r4)	#  p_2(D)->b, tmp49
	.loc 1 126 0
	ldw	r2, 8(r4)	#  p_2(D)->c,
	ret
	.cfi_endproc
.LFE23:
	.size	member, .-member
	.align	2
	.global	get_static_value_addr
	.type	get_static_value_addr, @function
get_static_value_addr:
.LFB24:
	.loc 1 132 0
	.cfi_startproc
	#  Current Frame Info
	#  total_size = 0
	#  var_size = 0
	#  args_size = 0
	#  save_reg_size = 0
	#  initialized = 1
	#  save_regs_offset = 0
	#  is_leaf = 1
	#  frame_pointer_needed = 0
	#  pretend_args_size = 0
	.loc 1 134 0
	addi	r2, gp, %gprel(static_value)	# ,
	ret
	.cfi_endproc
.LFE24:
	.size	get_static_value_addr, .-get_static_value_addr
	.align	2
	.global	get_static_value
	.type	get_static_value, @function
get_static_value:
.LFB25:
	.loc 1 137 0
	.cfi_startproc
	#  Current Frame Info
	#  total_size = 0
	#  var_size = 0
	#  args_size = 0
	#  save_reg_size = 0
	#  initialized = 1
	#  save_regs_offset = 0
	#  is_leaf = 1
	#  frame_pointer_needed = 0
	#  pretend_args_size = 0
	.loc 1 139 0
	ldw	r2, %gprel(static_value)(gp)	#  static_value,
	ret
	.cfi_endproc
.LFE25:
	.size	get_static_value, .-get_static_value
	.align	2
	.global	set_static_value
	.type	set_static_value, @function
set_static_value:
.LFB26:
	.loc 1 142 0
	.cfi_startproc
	#  Current Frame Info
	#  total_size = 0
	#  var_size = 0
	#  args_size = 0
	#  save_reg_size = 0
	#  initialized = 1
	#  save_regs_offset = 0
	#  is_leaf = 1
	#  frame_pointer_needed = 0
	#  pretend_args_size = 0
.LVL14:
	.loc 1 143 0
	stw	r4, %gprel(static_value)(gp)	#  static_value, a
	ret
	.cfi_endproc
.LFE26:
	.size	set_static_value, .-set_static_value
	.align	2
	.global	set_stack
	.type	set_stack, @function
set_stack:
.LFB27:
	.loc 1 149 0
	.cfi_startproc
	#  Current Frame Info
	#  total_size = 8
	#  var_size = 8
	#  args_size = 0
	#  save_reg_size = 0
	#  initialized = 1
	#  save_regs_offset = 8
	#  is_leaf = 1
	#  frame_pointer_needed = 0
	#  pretend_args_size = 0
	addi	sp, sp, -8	# ,,
	.cfi_def_cfa_offset 8
	.loc 1 150 0
	movi	r2, 254	#  tmp46,
	stw	r2, 0(sp)	#  a, tmp46
	.loc 1 151 0
	movi	r2, 255	#  tmp47,
	stw	r2, 4(sp)	#  b, tmp47
	.loc 1 152 0
	addi	sp, sp, 8	# ,,
	.cfi_def_cfa_offset 0
	ret
	.cfi_endproc
.LFE27:
	.size	set_stack, .-set_stack
	.align	2
	.global	use_stack
	.type	use_stack, @function
use_stack:
.LFB28:
	.loc 1 155 0
	.cfi_startproc
	#  Current Frame Info
	#  total_size = 8
	#  var_size = 8
	#  args_size = 0
	#  save_reg_size = 0
	#  initialized = 1
	#  save_regs_offset = 8
	#  is_leaf = 1
	#  frame_pointer_needed = 0
	#  pretend_args_size = 0
	addi	sp, sp, -8	# ,,
	.cfi_def_cfa_offset 8
	.loc 1 156 0
	movi	r2, 254	#  tmp50,
	stw	r2, 0(sp)	#  a, tmp50
	.loc 1 157 0
	movi	r2, 255	#  tmp51,
	stw	r2, 4(sp)	#  b, tmp51
	.loc 1 158 0
	ldw	r3, 0(sp)	#  a, D.1329
	ldw	r2, 4(sp)	#  b, D.1329
	.loc 1 159 0
	add	r2, r3, r2	#  D.1329,, D.1329
	addi	sp, sp, 8	# ,,
	.cfi_def_cfa_offset 0
	ret
	.cfi_endproc
.LFE28:
	.size	use_stack, .-use_stack
	.align	2
	.global	call_self
	.type	call_self, @function
call_self:
.LFB29:
	.loc 1 162 0
	.cfi_startproc
	#  Current Frame Info
	#  total_size = 4
	#  var_size = 0
	#  args_size = 0
	#  save_reg_size = 4
	#  initialized = 1
	#  save_regs_offset = 0
	#  is_leaf = 0
	#  frame_pointer_needed = 0
	#  pretend_args_size = 0
	addi	sp, sp, -4	# ,,
	.cfi_def_cfa_offset 4
	stw	ra, 0(sp)	# ,
	.cfi_offset 31, -4
	.loc 1 163 0
	call	call_self	# 
.LVL15:
	.loc 1 164 0
	ldw	ra, 0(sp)	# ,
	.cfi_restore 31
	addi	sp, sp, 4	# ,,
	.cfi_def_cfa_offset 0
	ret
	.cfi_endproc
.LFE29:
	.size	call_self, .-call_self
	.align	2
	.global	call_simple
	.type	call_simple, @function
call_simple:
.LFB30:
	.loc 1 167 0
	.cfi_startproc
	#  Current Frame Info
	#  total_size = 4
	#  var_size = 0
	#  args_size = 0
	#  save_reg_size = 4
	#  initialized = 1
	#  save_regs_offset = 0
	#  is_leaf = 0
	#  frame_pointer_needed = 0
	#  pretend_args_size = 0
.LVL16:
	addi	sp, sp, -4	# ,,
	.cfi_def_cfa_offset 4
	stw	ra, 0(sp)	# ,
	.cfi_offset 31, -4
	.loc 1 168 0
	call	return_arg1	# 
.LVL17:
	.loc 1 169 0
	ldw	ra, 0(sp)	# ,
	.cfi_restore 31
	addi	sp, sp, 4	# ,,
	.cfi_def_cfa_offset 0
	ret
	.cfi_endproc
.LFE30:
	.size	call_simple, .-call_simple
	.align	2
	.global	call_complex1
	.type	call_complex1, @function
call_complex1:
.LFB31:
	.loc 1 172 0
	.cfi_startproc
	#  Current Frame Info
	#  total_size = 4
	#  var_size = 0
	#  args_size = 0
	#  save_reg_size = 4
	#  initialized = 1
	#  save_regs_offset = 0
	#  is_leaf = 0
	#  frame_pointer_needed = 0
	#  pretend_args_size = 0
	addi	sp, sp, -4	# ,,
	.cfi_def_cfa_offset 4
	stw	ra, 0(sp)	# ,
	.cfi_offset 31, -4
	.loc 1 173 0
	movi	r4, 254	# ,
	call	return_arg1	# 
.LVL18:
	.loc 1 174 0
	addi	r2, r2, 1	# ,,
	ldw	ra, 0(sp)	# ,
	.cfi_restore 31
	addi	sp, sp, 4	# ,,
	.cfi_def_cfa_offset 0
	ret
	.cfi_endproc
.LFE31:
	.size	call_complex1, .-call_complex1
	.align	2
	.global	call_complex2
	.type	call_complex2, @function
call_complex2:
.LFB32:
	.loc 1 177 0
	.cfi_startproc
	#  Current Frame Info
	#  total_size = 8
	#  var_size = 0
	#  args_size = 0
	#  save_reg_size = 8
	#  initialized = 1
	#  save_regs_offset = 0
	#  is_leaf = 0
	#  frame_pointer_needed = 0
	#  pretend_args_size = 0
.LVL19:
	addi	sp, sp, -8	# ,,
	.cfi_def_cfa_offset 8
	stw	ra, 4(sp)	# ,
	stw	r16, 0(sp)	# ,
	.cfi_offset 31, -4
	.cfi_offset 16, -8
	mov	r16, r5	#  b, b
	.loc 1 178 0
	mov	r4, r5	# , b
.LVL20:
	call	return_arg1	# 
.LVL21:
	stw	r2, %gprel(static_value)(gp)	#  static_value,
	.loc 1 180 0
	mov	r2, r16	# , b
	ldw	ra, 4(sp)	# ,
	.cfi_restore 31
	ldw	r16, 0(sp)	# ,
	.cfi_restore 16
.LVL22:
	addi	sp, sp, 8	# ,,
	.cfi_def_cfa_offset 0
	ret
	.cfi_endproc
.LFE32:
	.size	call_complex2, .-call_complex2
	.align	2
	.global	call_pointer
	.type	call_pointer, @function
call_pointer:
.LFB33:
	.loc 1 183 0
	.cfi_startproc
	#  Current Frame Info
	#  total_size = 4
	#  var_size = 0
	#  args_size = 0
	#  save_reg_size = 4
	#  initialized = 1
	#  save_regs_offset = 0
	#  is_leaf = 0
	#  frame_pointer_needed = 0
	#  pretend_args_size = 0
.LVL23:
	addi	sp, sp, -4	# ,,
	.cfi_def_cfa_offset 4
	stw	ra, 0(sp)	# ,
	.cfi_offset 31, -4
	.loc 1 184 0
	callr	r4	#  f
.LVL24:
	.loc 1 185 0
	ldw	ra, 0(sp)	# ,
	.cfi_restore 31
	addi	sp, sp, 4	# ,,
	.cfi_def_cfa_offset 0
	ret
	.cfi_endproc
.LFE33:
	.size	call_pointer, .-call_pointer
	.align	2
	.global	condition
	.type	condition, @function
condition:
.LFB34:
	.loc 1 188 0
	.cfi_startproc
	#  Current Frame Info
	#  total_size = 0
	#  var_size = 0
	#  args_size = 0
	#  save_reg_size = 0
	#  initialized = 1
	#  save_regs_offset = 0
	#  is_leaf = 1
	#  frame_pointer_needed = 0
	#  pretend_args_size = 0
.LVL25:
	.loc 1 189 0
	bne	r4, r5, .L43	# , a, b,
	.loc 1 190 0
	movi	r5, 1	#  b,
.LVL26:
.L43:
	.loc 1 192 0
	addi	r2, r5, 1	# ,, b
	ret
	.cfi_endproc
.LFE34:
	.size	condition, .-condition
	.align	2
	.global	loop
	.type	loop, @function
loop:
.LFB35:
	.loc 1 195 0
	.cfi_startproc
	#  Current Frame Info
	#  total_size = 0
	#  var_size = 0
	#  args_size = 0
	#  save_reg_size = 0
	#  initialized = 1
	#  save_regs_offset = 0
	#  is_leaf = 1
	#  frame_pointer_needed = 0
	#  pretend_args_size = 0
.LVL27:
	.loc 1 197 0
	bge	zero, r4, .L47	# ,, n,
	mov	r2, zero	#  sum,
	mov	r3, zero	#  i,
.LVL28:
.L46:
	.loc 1 198 0 discriminator 3
	add	r2, r2, r3	#  i, sum, sum
.LVL29:
	.loc 1 197 0 discriminator 3
	addi	r3, r3, 1	# , i, i
.LVL30:
	bne	r3, r4, .L46	# , i, n,
	ret
.LVL31:
.L47:
	.loc 1 196 0
	mov	r2, zero	#  sum,
	.loc 1 200 0
	ret
	.cfi_endproc
.LFE35:
	.size	loop, .-loop
	.align	2
	.global	many_args
	.type	many_args, @function
many_args:
.LFB36:
	.loc 1 204 0
	.cfi_startproc
	#  Current Frame Info
	#  total_size = 0
	#  var_size = 0
	#  args_size = 0
	#  save_reg_size = 0
	#  initialized = 1
	#  save_regs_offset = 0
	#  is_leaf = 1
	#  frame_pointer_needed = 0
	#  pretend_args_size = 0
.LVL32:
	.loc 1 205 0
	add	r4, r4, r7	#  a3, D.1345, a0
.LVL33:
	ldw	r2, 4(sp)	#  a5, a5
	add	r4, r4, r2	#  a5, D.1345, D.1345
	.loc 1 206 0
	ldw	r2, 12(sp)	#  a7, a7
	add	r2, r4, r2	#  a7,, D.1345
	ret
	.cfi_endproc
.LFE36:
	.size	many_args, .-many_args
	.align	2
	.global	call_many_args
	.type	call_many_args, @function
call_many_args:
.LFB37:
	.loc 1 209 0
	.cfi_startproc
	#  Current Frame Info
	#  total_size = 20
	#  var_size = 0
	#  args_size = 16
	#  save_reg_size = 4
	#  initialized = 1
	#  save_regs_offset = 16
	#  is_leaf = 0
	#  frame_pointer_needed = 0
	#  pretend_args_size = 0
	addi	sp, sp, -20	# ,,
	.cfi_def_cfa_offset 20
	stw	ra, 16(sp)	# ,
	.cfi_offset 31, -4
	.loc 1 210 0
	movi	r2, 4	#  tmp51,
	stw	r2, 0(sp)	# , tmp51
	movi	r2, 5	#  tmp52,
	stw	r2, 4(sp)	# , tmp52
	movi	r2, 6	#  tmp53,
	stw	r2, 8(sp)	# , tmp53
	movi	r2, 7	#  tmp54,
	stw	r2, 12(sp)	# , tmp54
	mov	r4, zero	# ,
	movi	r5, 1	# ,
	movi	r6, 2	# ,
	movi	r7, 3	# ,
	call	many_args	# 
.LVL34:
	.loc 1 211 0
	ldw	ra, 16(sp)	# ,
	.cfi_restore 31
	addi	sp, sp, 20	# ,,
	.cfi_def_cfa_offset 0
	ret
	.cfi_endproc
.LFE37:
	.size	call_many_args, .-call_many_args
	.align	2
	.global	direct
	.type	direct, @function
direct:
.LFB38:
	.loc 1 215 0
	.cfi_startproc
	#  Current Frame Info
	#  total_size = 0
	#  var_size = 0
	#  args_size = 0
	#  save_reg_size = 0
	#  initialized = 1
	#  save_regs_offset = 0
	#  is_leaf = 1
	#  frame_pointer_needed = 0
	#  pretend_args_size = 0
	.loc 1 216 0
#APP
#  216 "nios2-elf.c" 1
	nop
#  0 "" 2
#NO_APP
	ret
	.cfi_endproc
.LFE38:
	.size	direct, .-direct
	.align	2
	.global	binary
	.type	binary, @function
binary:
.LFB39:
	.loc 1 223 0
	.cfi_startproc
	#  Current Frame Info
	#  total_size = 0
	#  var_size = 0
	#  args_size = 0
	#  save_reg_size = 0
	#  initialized = 1
	#  save_regs_offset = 0
	#  is_leaf = 1
	#  frame_pointer_needed = 0
	#  pretend_args_size = 0
	.loc 1 224 0
#APP
#  224 "nios2-elf.c" 1
	.align 4
#  0 "" 2
	.loc 1 225 0
#  225 "nios2-elf.c" 1
	.int 0x0
#  0 "" 2
#NO_APP
	ret
	.cfi_endproc
.LFE39:
	.size	binary, .-binary
	.align	2
	.global	main
	.type	main, @function
main:
.LFB40:
	.loc 1 231 0
	.cfi_startproc
	#  Current Frame Info
	#  total_size = 0
	#  var_size = 0
	#  args_size = 0
	#  save_reg_size = 0
	#  initialized = 1
	#  save_regs_offset = 0
	#  is_leaf = 1
	#  frame_pointer_needed = 0
	#  pretend_args_size = 0
	.loc 1 233 0
	mov	r2, zero	# ,
	ret
	.cfi_endproc
.LFE40:
	.size	main, .-main
	.global	static_long
	.section	.sdata,"aws",@progbits
	.align	2
	.type	static_long, @object
	.size	static_long, 4
static_long:
	.long	305419896
	.global	static_value
	.align	2
	.type	static_value, @object
	.size	static_value, 4
static_value:
	.long	10
	.section	.text
.Letext0: