	.file	"s390-linux.c"
# GNU C (GCC) version 4.9.4 (s390-linux)
#	compiled by GNU C version 4.8.5, GMP version 6.1.2, MPFR version 3.1.5, MPC version 1.0.3
# GGC heuristics: --param ggc-min-expand=100 --param ggc-min-heapsize=131072
# options passed:  -nostdinc s390-linux.c -m31 -mesa -march=g5
# -auxbase-strip s390-linux.s -g -O -Wall -fno-builtin -fverbose-asm
# -fomit-frame-pointer -fno-inline
# options enabled:  -faggressive-loop-optimizations
# -fasynchronous-unwind-tables -fauto-inc-dec -fbranch-count-reg
# -fcombine-stack-adjustments -fcommon -fcompare-elim -fcprop-registers
# -fdefer-pop -fdelete-null-pointer-checks -fdwarf2-cfi-asm
# -fearly-inlining -feliminate-unused-debug-types -fforward-propagate
# -ffunction-cse -fgcse-lm -fgnu-runtime -fgnu-unique
# -fguess-branch-probability -fident -fif-conversion -fif-conversion2
# -finline-atomics -finline-functions-called-once -fipa-profile
# -fipa-pure-const -fipa-reference -fira-hoist-pressure
# -fira-share-save-slots -fira-share-spill-slots -fivopts
# -fkeep-static-consts -fleading-underscore -flifetime-dse -fmath-errno
# -fmerge-constants -fmerge-debug-strings -fmove-loop-invariants
# -fomit-frame-pointer -fpcc-struct-return -fpeephole
# -fprefetch-loop-arrays -fsched-critical-path-heuristic
# -fsched-dep-count-heuristic -fsched-group-heuristic -fsched-interblock
# -fsched-last-insn-heuristic -fsched-pressure -fsched-rank-heuristic
# -fsched-spec -fsched-spec-insn-heuristic -fsched-stalled-insns-dep
# -fshow-column -fshrink-wrap -fsigned-zeros -fsplit-ivs-in-unroller
# -fsplit-wide-types -fstrict-volatile-bitfields -fsync-libcalls
# -ftoplevel-reorder -ftrapping-math -ftree-bit-ccp -ftree-ccp -ftree-ch
# -ftree-coalesce-vars -ftree-copy-prop -ftree-copyrename -ftree-cselim
# -ftree-dce -ftree-dominator-opts -ftree-dse -ftree-forwprop -ftree-fre
# -ftree-loop-if-convert -ftree-loop-im -ftree-loop-ivcanon
# -ftree-loop-optimize -ftree-parallelize-loops= -ftree-phiprop -ftree-pta
# -ftree-reassoc -ftree-scev-cprop -ftree-sink -ftree-slsr -ftree-sra
# -ftree-ter -funit-at-a-time -funwind-tables -fvar-tracking
# -fvar-tracking-assignments -fverbose-asm -fzero-initialized-in-bss -m31
# -mbranch-cost= -mesa -mglibc -mhard-float -mlong-double-64 -mlra

.text
.Ltext0:
	.align	8
.globl null
	.type	null, @function
null:
.LFB0:
	.file 1 "s390-linux.c"
	.loc 1 2 0
	.cfi_startproc
	st	%r14,56(%r15)	#,
	.cfi_offset 14, -40
	.loc 1 4 0
	l	%r4,56(%r15)	#,
	l	%r14,56(%r15)	#,
	.cfi_restore 14
	br	%r4	#
	.cfi_endproc
.LFE0:
	.size	null, .-null
	.align	8
.globl return_zero
	.type	return_zero, @function
return_zero:
.LFB1:
	.loc 1 7 0
	.cfi_startproc
	st	%r14,56(%r15)	#,
	.cfi_offset 14, -40
	.loc 1 9 0
	lhi	%r2,0	#,
	l	%r4,56(%r15)	#,
	l	%r14,56(%r15)	#,
	.cfi_restore 14
	br	%r4	#
	.cfi_endproc
.LFE1:
	.size	return_zero, .-return_zero
	.align	8
.globl return_one
	.type	return_one, @function
return_one:
.LFB2:
	.loc 1 12 0
	.cfi_startproc
	st	%r14,56(%r15)	#,
	.cfi_offset 14, -40
	.loc 1 14 0
	lhi	%r2,1	#,
	l	%r4,56(%r15)	#,
	l	%r14,56(%r15)	#,
	.cfi_restore 14
	br	%r4	#
	.cfi_endproc
.LFE2:
	.size	return_one, .-return_one
	.align	8
.globl return_int_size
	.type	return_int_size, @function
return_int_size:
.LFB3:
	.loc 1 17 0
	.cfi_startproc
	st	%r14,56(%r15)	#,
	.cfi_offset 14, -40
	.loc 1 19 0
	lhi	%r2,4	#,
	l	%r4,56(%r15)	#,
	l	%r14,56(%r15)	#,
	.cfi_restore 14
	br	%r4	#
	.cfi_endproc
.LFE3:
	.size	return_int_size, .-return_int_size
	.align	8
.globl return_pointer_size
	.type	return_pointer_size, @function
return_pointer_size:
.LFB4:
	.loc 1 22 0
	.cfi_startproc
	st	%r14,56(%r15)	#,
	.cfi_offset 14, -40
	.loc 1 24 0
	lhi	%r2,4	#,
	l	%r4,56(%r15)	#,
	l	%r14,56(%r15)	#,
	.cfi_restore 14
	br	%r4	#
	.cfi_endproc
.LFE4:
	.size	return_pointer_size, .-return_pointer_size
	.align	8
.globl return_short_size
	.type	return_short_size, @function
return_short_size:
.LFB5:
	.loc 1 27 0
	.cfi_startproc
	st	%r14,56(%r15)	#,
	.cfi_offset 14, -40
	.loc 1 29 0
	lhi	%r2,2	#,
	l	%r4,56(%r15)	#,
	l	%r14,56(%r15)	#,
	.cfi_restore 14
	br	%r4	#
	.cfi_endproc
.LFE5:
	.size	return_short_size, .-return_short_size
	.align	8
.globl return_long_size
	.type	return_long_size, @function
return_long_size:
.LFB6:
	.loc 1 32 0
	.cfi_startproc
	st	%r14,56(%r15)	#,
	.cfi_offset 14, -40
	.loc 1 34 0
	lhi	%r2,4	#,
	l	%r4,56(%r15)	#,
	l	%r14,56(%r15)	#,
	.cfi_restore 14
	br	%r4	#
	.cfi_endproc
.LFE6:
	.size	return_long_size, .-return_long_size
	.align	8
.globl return_short
	.type	return_short, @function
return_short:
.LFB7:
	.loc 1 37 0
	.cfi_startproc
	st	%r14,56(%r15)	#,
	.cfi_offset 14, -40
	.loc 1 39 0
	lhi	%r2,30600	#,
	l	%r4,56(%r15)	#,
	l	%r14,56(%r15)	#,
	.cfi_restore 14
	br	%r4	#
	.cfi_endproc
.LFE7:
	.size	return_short, .-return_short
	.align	8
.globl return_long
	.type	return_long, @function
return_long:
.LFB8:
	.loc 1 42 0
	.cfi_startproc
	st	%r14,56(%r15)	#,
	basr	%r5,0	#
	.cfi_offset 14, -40
.L27:
	.loc 1 44 0
	l	%r2,.L28-.L27(%r5)	#,
	l	%r4,56(%r15)	#,
	l	%r14,56(%r15)	#,
	.cfi_restore 14
	br	%r4	#
	.align	4	#
.L28:
	.long	2005440938
	.align	2	#
	.cfi_endproc
.LFE8:
	.size	return_long, .-return_long
	.align	8
.globl return_short_upper
	.type	return_short_upper, @function
return_short_upper:
.LFB9:
	.loc 1 47 0
	.cfi_startproc
	st	%r14,56(%r15)	#,
	.cfi_offset 14, -40
	.loc 1 49 0
	lhi	%r2,-18	#,
	l	%r4,56(%r15)	#,
	l	%r14,56(%r15)	#,
	.cfi_restore 14
	br	%r4	#
	.cfi_endproc
.LFE9:
	.size	return_short_upper, .-return_short_upper
	.align	8
.globl return_long_upper
	.type	return_long_upper, @function
return_long_upper:
.LFB10:
	.loc 1 52 0
	.cfi_startproc
	st	%r14,56(%r15)	#,
	basr	%r5,0	#
	.cfi_offset 14, -40
.L34:
	.loc 1 54 0
	l	%r2,.L35-.L34(%r5)	#,
	l	%r4,56(%r15)	#,
	l	%r14,56(%r15)	#,
	.cfi_restore 14
	br	%r4	#
	.align	4	#
.L35:
	.long	-1122868
	.align	2	#
	.cfi_endproc
.LFE10:
	.size	return_long_upper, .-return_long_upper
	.align	8
.globl return_arg1
	.type	return_arg1, @function
return_arg1:
.LFB11:
	.loc 1 57 0
	.cfi_startproc
.LVL0:
	st	%r14,56(%r15)	#,
	.cfi_offset 14, -40
	.loc 1 59 0
	l	%r4,56(%r15)	#,
	l	%r14,56(%r15)	#,
	.cfi_restore 14
	br	%r4	#
	.cfi_endproc
.LFE11:
	.size	return_arg1, .-return_arg1
	.align	8
.globl return_arg2
	.type	return_arg2, @function
return_arg2:
.LFB12:
	.loc 1 62 0
	.cfi_startproc
.LVL1:
	st	%r14,56(%r15)	#,
	.cfi_offset 14, -40
	.loc 1 64 0
	lr	%r2,%r3	#, b
.LVL2:
	l	%r4,56(%r15)	#,
	l	%r14,56(%r15)	#,
	.cfi_restore 14
	br	%r4	#
	.cfi_endproc
.LFE12:
	.size	return_arg2, .-return_arg2
	.align	8
.globl add
	.type	add, @function
add:
.LFB13:
	.loc 1 67 0
	.cfi_startproc
.LVL3:
	st	%r14,56(%r15)	#,
	.cfi_offset 14, -40
	.loc 1 69 0
	ar	%r2,%r3	#, b
.LVL4:
	l	%r4,56(%r15)	#,
	l	%r14,56(%r15)	#,
	.cfi_restore 14
	br	%r4	#
	.cfi_endproc
.LFE13:
	.size	add, .-add
	.align	8
.globl add3
	.type	add3, @function
add3:
.LFB14:
	.loc 1 72 0
	.cfi_startproc
.LVL5:
	st	%r14,56(%r15)	#,
	.cfi_offset 14, -40
	.loc 1 73 0
	ar	%r2,%r3	# D.1236, b
.LVL6:
	.loc 1 74 0
	ar	%r2,%r4	#, c
	l	%r4,56(%r15)	#,
.LVL7:
	l	%r14,56(%r15)	#,
	.cfi_restore 14
	br	%r4	#
	.cfi_endproc
.LFE14:
	.size	add3, .-add3
	.align	8
.globl add_two
	.type	add_two, @function
add_two:
.LFB15:
	.loc 1 77 0
	.cfi_startproc
.LVL8:
	st	%r14,56(%r15)	#,
	.cfi_offset 14, -40
	.loc 1 79 0
	ahi	%r2,2	#,
.LVL9:
	l	%r4,56(%r15)	#,
	l	%r14,56(%r15)	#,
	.cfi_restore 14
	br	%r4	#
	.cfi_endproc
.LFE15:
	.size	add_two, .-add_two
	.align	8
.globl inc
	.type	inc, @function
inc:
.LFB16:
	.loc 1 82 0
	.cfi_startproc
.LVL10:
	st	%r14,56(%r15)	#,
	.cfi_offset 14, -40
.LVL11:
	.loc 1 84 0
	ahi	%r2,1	#,
.LVL12:
	l	%r4,56(%r15)	#,
	l	%r14,56(%r15)	#,
	.cfi_restore 14
	br	%r4	#
	.cfi_endproc
.LFE16:
	.size	inc, .-inc
	.align	8
.globl or
	.type	or, @function
or:
.LFB17:
	.loc 1 87 0
	.cfi_startproc
.LVL13:
	st	%r14,56(%r15)	#,
	.cfi_offset 14, -40
	.loc 1 89 0
	or	%r2,%r3	#, b
.LVL14:
	l	%r4,56(%r15)	#,
	l	%r14,56(%r15)	#,
	.cfi_restore 14
	br	%r4	#
	.cfi_endproc
.LFE17:
	.size	or, .-or
	.align	8
.globl or_one
	.type	or_one, @function
or_one:
.LFB18:
	.loc 1 92 0
	.cfi_startproc
.LVL15:
	st	%r14,56(%r15)	#,
	basr	%r5,0	#
	.cfi_offset 14, -40
.L59:
	.loc 1 94 0
	o	%r2,.L60-.L59(%r5)	#,
.LVL16:
	l	%r4,56(%r15)	#,
	l	%r14,56(%r15)	#,
	.cfi_restore 14
	br	%r4	#
	.align	4	#
.L60:
	.long	1
	.align	2	#
	.cfi_endproc
.LFE18:
	.size	or_one, .-or_one
	.align	8
.globl load
	.type	load, @function
load:
.LFB19:
	.loc 1 97 0
	.cfi_startproc
.LVL17:
	st	%r14,56(%r15)	#,
	.cfi_offset 14, -40
	.loc 1 98 0
	l	%r2,0(%r2)	# D.1245, *p_2(D)
.LVL18:
	.loc 1 99 0
	l	%r4,56(%r15)	#,
	l	%r14,56(%r15)	#,
	.cfi_restore 14
	br	%r4	#
	.cfi_endproc
.LFE19:
	.size	load, .-load
	.align	8
.globl store
	.type	store, @function
store:
.LFB20:
	.loc 1 102 0
	.cfi_startproc
.LVL19:
	st	%r14,56(%r15)	#,
	.cfi_offset 14, -40
	.loc 1 103 0
	lhi	%r1,255	# tmp45,
	st	%r1,0(%r2)	# tmp45, *p_2(D)
	.loc 1 104 0
	l	%r4,56(%r15)	#,
	l	%r14,56(%r15)	#,
	.cfi_restore 14
	br	%r4	#
	.cfi_endproc
.LFE20:
	.size	store, .-store
	.align	8
.globl load_long
	.type	load_long, @function
load_long:
.LFB21:
	.loc 1 107 0
	.cfi_startproc
.LVL20:
	st	%r14,56(%r15)	#,
	.cfi_offset 14, -40
	.loc 1 108 0
	l	%r2,0(%r2)	# D.1248, *p_2(D)
.LVL21:
	.loc 1 109 0
	l	%r4,56(%r15)	#,
	l	%r14,56(%r15)	#,
	.cfi_restore 14
	br	%r4	#
	.cfi_endproc
.LFE21:
	.size	load_long, .-load_long
	.align	8
.globl store_long
	.type	store_long, @function
store_long:
.LFB22:
	.loc 1 112 0
	.cfi_startproc
.LVL22:
	st	%r14,56(%r15)	#,
	basr	%r5,0	#
	.cfi_offset 14, -40
.L72:
	.loc 1 113 0
	l	%r1,.L73-.L72(%r5)	# tmp45,
	st	%r1,0(%r2)	# tmp45, *p_2(D)
	.loc 1 114 0
	l	%r4,56(%r15)	#,
	l	%r14,56(%r15)	#,
	.cfi_restore 14
	br	%r4	#
	.align	4	#
.L73:
	.long	287454020
	.align	2	#
	.cfi_endproc
.LFE22:
	.size	store_long, .-store_long
	.align	8
.globl member
	.type	member, @function
member:
.LFB23:
	.loc 1 123 0
	.cfi_startproc
.LVL23:
	st	%r14,56(%r15)	#,
	.cfi_offset 14, -40
	.loc 1 124 0
	lhi	%r1,1	# tmp49,
	st	%r1,4(%r2)	# tmp49, p_2(D)->b
	.loc 1 126 0
	l	%r2,8(%r2)	#, p_2(D)->c
.LVL24:
	l	%r4,56(%r15)	#,
	l	%r14,56(%r15)	#,
	.cfi_restore 14
	br	%r4	#
	.cfi_endproc
.LFE23:
	.size	member, .-member
	.align	8
.globl get_static_value_addr
	.type	get_static_value_addr, @function
get_static_value_addr:
.LFB24:
	.loc 1 132 0
	.cfi_startproc
	st	%r14,56(%r15)	#,
	basr	%r5,0	#
	.cfi_offset 14, -40
.L79:
	.loc 1 134 0
	l	%r2,.L80-.L79(%r5)	#,
	l	%r4,56(%r15)	#,
	l	%r14,56(%r15)	#,
	.cfi_restore 14
	br	%r4	#
	.align	4	#
.L80:
	.long	static_value
	.align	2	#
	.cfi_endproc
.LFE24:
	.size	get_static_value_addr, .-get_static_value_addr
	.align	8
.globl get_static_value
	.type	get_static_value, @function
get_static_value:
.LFB25:
	.loc 1 137 0
	.cfi_startproc
	st	%r14,56(%r15)	#,
	basr	%r5,0	#
	.cfi_offset 14, -40
.L83:
	.loc 1 138 0
	l	%r1,.L84-.L83(%r5)	# tmp47,
	.loc 1 139 0
	l	%r2,0(%r1)	#, static_value
	l	%r4,56(%r15)	#,
	l	%r14,56(%r15)	#,
	.cfi_restore 14
	br	%r4	#
	.align	4	#
.L84:
	.long	static_value
	.align	2	#
	.cfi_endproc
.LFE25:
	.size	get_static_value, .-get_static_value
	.align	8
.globl set_static_value
	.type	set_static_value, @function
set_static_value:
.LFB26:
	.loc 1 142 0
	.cfi_startproc
.LVL25:
	st	%r14,56(%r15)	#,
	basr	%r5,0	#
	.cfi_offset 14, -40
.L87:
	.loc 1 143 0
	l	%r1,.L88-.L87(%r5)	# tmp45,
	st	%r2,0(%r1)	# a, static_value
	.loc 1 144 0
	l	%r4,56(%r15)	#,
	l	%r14,56(%r15)	#,
	.cfi_restore 14
	br	%r4	#
	.align	4	#
.L88:
	.long	static_value
	.align	2	#
	.cfi_endproc
.LFE26:
	.size	set_static_value, .-set_static_value
	.align	8
.globl set_stack
	.type	set_stack, @function
set_stack:
.LFB27:
	.loc 1 149 0
	.cfi_startproc
	stm	%r14,%r15,56(%r15)	#,,
	.cfi_offset 14, -40
	.cfi_offset 15, -36
	ahi	%r15,-104	#,
	.cfi_def_cfa_offset 200
	.loc 1 150 0
	lhi	%r1,254	# tmp44,
	st	%r1,100(%r15)	# tmp44, a
	.loc 1 151 0
	lhi	%r1,255	# tmp45,
	st	%r1,96(%r15)	# tmp45, b
	.loc 1 152 0
	l	%r4,160(%r15)	#,
	lm	%r14,%r15,160(%r15)	#,,
	.cfi_restore 15
	.cfi_restore 14
	.cfi_def_cfa_offset 96
	br	%r4	#
	.cfi_endproc
.LFE27:
	.size	set_stack, .-set_stack
	.align	8
.globl use_stack
	.type	use_stack, @function
use_stack:
.LFB28:
	.loc 1 155 0
	.cfi_startproc
	stm	%r14,%r15,56(%r15)	#,,
	.cfi_offset 14, -40
	.cfi_offset 15, -36
	ahi	%r15,-104	#,
	.cfi_def_cfa_offset 200
	.loc 1 156 0
	lhi	%r1,254	# tmp49,
	st	%r1,100(%r15)	# tmp49, a
	.loc 1 157 0
	lhi	%r1,255	# tmp50,
	st	%r1,96(%r15)	# tmp50, b
	.loc 1 158 0
	l	%r2,100(%r15)	# D.1258, a
	l	%r1,96(%r15)	# D.1258, b
	.loc 1 159 0
	ar	%r2,%r1	#, D.1258
	l	%r4,160(%r15)	#,
	lm	%r14,%r15,160(%r15)	#,,
	.cfi_restore 15
	.cfi_restore 14
	.cfi_def_cfa_offset 96
	br	%r4	#
	.cfi_endproc
.LFE28:
	.size	use_stack, .-use_stack
	.align	8
.globl call_self
	.type	call_self, @function
call_self:
.LFB29:
	.loc 1 162 0
	.cfi_startproc
	stm	%r13,%r15,52(%r15)	#,,
	.cfi_offset 13, -44
	.cfi_offset 14, -40
	.cfi_offset 15, -36
	basr	%r13,0	#
.L97:
	ahi	%r15,-96	#,
	.cfi_def_cfa_offset 192
	.loc 1 163 0
	l	%r1,.L98-.L97(%r13)	# tmp44,
	basr	%r14,%r1	#, tmp44
.LVL26:
	.loc 1 164 0
	l	%r4,152(%r15)	#,
	lm	%r13,%r15,148(%r15)	#,,
	.cfi_restore 15
	.cfi_restore 14
	.cfi_restore 13
	.cfi_def_cfa_offset 96
	br	%r4	#
	.align	4	#
.L98:
	.long	call_self
	.align	2	#
	.cfi_endproc
.LFE29:
	.size	call_self, .-call_self
	.align	8
.globl call_simple
	.type	call_simple, @function
call_simple:
.LFB30:
	.loc 1 167 0
	.cfi_startproc
.LVL27:
	stm	%r13,%r15,52(%r15)	#,,
	.cfi_offset 13, -44
	.cfi_offset 14, -40
	.cfi_offset 15, -36
	basr	%r13,0	#
.L101:
	ahi	%r15,-96	#,
	.cfi_def_cfa_offset 192
	.loc 1 168 0
	l	%r1,.L102-.L101(%r13)	# tmp47,
	basr	%r14,%r1	#, tmp47
.LVL28:
	.loc 1 169 0
	l	%r4,152(%r15)	#,
	lm	%r13,%r15,148(%r15)	#,,
	.cfi_restore 15
	.cfi_restore 14
	.cfi_restore 13
	.cfi_def_cfa_offset 96
	br	%r4	#
	.align	4	#
.L102:
	.long	return_arg1
	.align	2	#
	.cfi_endproc
.LFE30:
	.size	call_simple, .-call_simple
	.align	8
.globl call_complex1
	.type	call_complex1, @function
call_complex1:
.LFB31:
	.loc 1 172 0
	.cfi_startproc
	stm	%r13,%r15,52(%r15)	#,,
	.cfi_offset 13, -44
	.cfi_offset 14, -40
	.cfi_offset 15, -36
	basr	%r13,0	#
.L105:
	ahi	%r15,-96	#,
	.cfi_def_cfa_offset 192
	.loc 1 173 0
	lhi	%r2,254	#,
	l	%r1,.L106-.L105(%r13)	# tmp47,
	basr	%r14,%r1	#, tmp47
.LVL29:
	.loc 1 174 0
	ahi	%r2,1	#,
	l	%r4,152(%r15)	#,
	lm	%r13,%r15,148(%r15)	#,,
	.cfi_restore 15
	.cfi_restore 14
	.cfi_restore 13
	.cfi_def_cfa_offset 96
	br	%r4	#
	.align	4	#
.L106:
	.long	return_arg1
	.align	2	#
	.cfi_endproc
.LFE31:
	.size	call_complex1, .-call_complex1
	.align	8
.globl call_complex2
	.type	call_complex2, @function
call_complex2:
.LFB32:
	.loc 1 177 0
	.cfi_startproc
.LVL30:
	stm	%r13,%r15,52(%r15)	#,,
	.cfi_offset 13, -44
	.cfi_offset 14, -40
	.cfi_offset 15, -36
	basr	%r13,0	#
.L109:
	ahi	%r15,-104	#,
	.cfi_def_cfa_offset 200
	st	%r3,100(%r15)	# b, %sfp
	.loc 1 178 0
	lr	%r2,%r3	#, b
.LVL31:
	l	%r1,.L110-.L109(%r13)	# tmp48,
	basr	%r14,%r1	#, tmp48
.LVL32:
	l	%r1,.L111-.L109(%r13)	# tmp49,
	st	%r2,0(%r1)	#, static_value
	.loc 1 180 0
	l	%r2,100(%r15)	#, %sfp
	l	%r4,160(%r15)	#,
	lm	%r13,%r15,156(%r15)	#,,
	.cfi_restore 15
	.cfi_restore 14
	.cfi_restore 13
	.cfi_def_cfa_offset 96
	br	%r4	#
	.align	4	#
.L111:
	.long	static_value
.L110:
	.long	return_arg1
	.align	2	#
	.cfi_endproc
.LFE32:
	.size	call_complex2, .-call_complex2
	.align	8
.globl call_pointer
	.type	call_pointer, @function
call_pointer:
.LFB33:
	.loc 1 183 0
	.cfi_startproc
.LVL33:
	stm	%r14,%r15,56(%r15)	#,,
	.cfi_offset 14, -40
	.cfi_offset 15, -36
	ahi	%r15,-96	#,
	.cfi_def_cfa_offset 192
	.loc 1 184 0
	basr	%r14,%r2	#, f
.LVL34:
	.loc 1 185 0
	l	%r4,152(%r15)	#,
	lm	%r14,%r15,152(%r15)	#,,
	.cfi_restore 15
	.cfi_restore 14
	.cfi_def_cfa_offset 96
	br	%r4	#
	.cfi_endproc
.LFE33:
	.size	call_pointer, .-call_pointer
	.align	8
.globl condition
	.type	condition, @function
condition:
.LFB34:
	.loc 1 188 0
	.cfi_startproc
.LVL35:
	st	%r14,56(%r15)	#,
	.cfi_offset 14, -40
	.loc 1 189 0
	cr	%r2,%r3	# a, b
	jne	.L116	#,
	.loc 1 190 0
	lhi	%r3,1	# b,
.LVL36:
.L116:
	.loc 1 192 0
	lr	%r2,%r3	# tmp49, b
.LVL37:
	ahi	%r2,1	# tmp49,
	l	%r4,56(%r15)	#,
	l	%r14,56(%r15)	#,
	.cfi_restore 14
	br	%r4	#
	.cfi_endproc
.LFE34:
	.size	condition, .-condition
	.align	8
.globl loop
	.type	loop, @function
loop:
.LFB35:
	.loc 1 195 0
	.cfi_startproc
.LVL38:
	st	%r14,56(%r15)	#,
	.cfi_offset 14, -40
.LVL39:
	.loc 1 197 0
	ltr	%r1,%r2	# n, n
	jle	.L122	#,
	lhi	%r2,0	# sum,
.LVL40:
	lhi	%r3,0	# i,
	sr	%r1,%r3	# tmp49, i
.LVL41:
.L121:
	.loc 1 198 0 discriminator 3
	ar	%r2,%r3	# sum, i
.LVL42:
	.loc 1 197 0 discriminator 3
	ahi	%r3,1	# i,
.LVL43:
	brct	%r1,.L121	# tmp49,
	j	.L120	#
.LVL44:
.L122:
	.loc 1 196 0
	lhi	%r2,0	# sum,
.LVL45:
.L120:
	.loc 1 200 0
	l	%r4,56(%r15)	#,
	l	%r14,56(%r15)	#,
	.cfi_restore 14
	br	%r4	#
	.cfi_endproc
.LFE35:
	.size	loop, .-loop
	.align	8
.globl many_args
	.type	many_args, @function
many_args:
.LFB36:
	.loc 1 204 0
	.cfi_startproc
.LVL46:
	st	%r14,56(%r15)	#,
	.cfi_offset 14, -40
	.loc 1 205 0
	ar	%r2,%r5	# D.1275, a3
.LVL47:
	a	%r2,96(%r15)	# D.1275, a5
	.loc 1 206 0
	a	%r2,104(%r15)	#, a7
	l	%r4,56(%r15)	#,
.LVL48:
	l	%r14,56(%r15)	#,
	.cfi_restore 14
	br	%r4	#
	.cfi_endproc
.LFE36:
	.size	many_args, .-many_args
	.align	8
.globl call_many_args
	.type	call_many_args, @function
call_many_args:
.LFB37:
	.loc 1 209 0
	.cfi_startproc
	stm	%r6,%r15,24(%r15)	#,,
	.cfi_offset 6, -72
	.cfi_offset 7, -68
	.cfi_offset 8, -64
	.cfi_offset 9, -60
	.cfi_offset 10, -56
	.cfi_offset 11, -52
	.cfi_offset 12, -48
	.cfi_offset 13, -44
	.cfi_offset 14, -40
	.cfi_offset 15, -36
	basr	%r13,0	#
.L131:
	ahi	%r15,-112	#,
	.cfi_def_cfa_offset 208
	.loc 1 210 0
	lhi	%r1,5	# tmp48,
	st	%r1,96(%r15)	# tmp48,
	lhi	%r1,6	# tmp49,
	st	%r1,100(%r15)	# tmp49,
	lhi	%r1,7	# tmp50,
	st	%r1,104(%r15)	# tmp50,
	lhi	%r2,0	#,
	lhi	%r3,1	#,
	lhi	%r4,2	#,
	lhi	%r5,3	#,
	lhi	%r6,4	#,
	l	%r1,.L132-.L131(%r13)	# tmp46,
	basr	%r14,%r1	#, tmp46
.LVL49:
	.loc 1 211 0
	l	%r4,168(%r15)	#,
	lm	%r6,%r15,136(%r15)	#,,
	.cfi_restore 15
	.cfi_restore 14
	.cfi_restore 13
	.cfi_restore 12
	.cfi_restore 11
	.cfi_restore 10
	.cfi_restore 9
	.cfi_restore 8
	.cfi_restore 7
	.cfi_restore 6
	.cfi_def_cfa_offset 96
	br	%r4	#
	.align	4	#
.L132:
	.long	many_args
	.align	2	#
	.cfi_endproc
.LFE37:
	.size	call_many_args, .-call_many_args
	.align	8
.globl direct
	.type	direct, @function
direct:
.LFB38:
	.loc 1 215 0
	.cfi_startproc
	st	%r14,56(%r15)	#,
	.cfi_offset 14, -40
	.loc 1 216 0
#APP
# 216 "s390-linux.c" 1
	nop
# 0 "" 2
	.loc 1 218 0
#NO_APP
	l	%r4,56(%r15)	#,
	l	%r14,56(%r15)	#,
	.cfi_restore 14
	br	%r4	#
	.cfi_endproc
.LFE38:
	.size	direct, .-direct
	.align	8
.globl binary
	.type	binary, @function
binary:
.LFB39:
	.loc 1 223 0
	.cfi_startproc
	st	%r14,56(%r15)	#,
	.cfi_offset 14, -40
	.loc 1 224 0
#APP
# 224 "s390-linux.c" 1
	.align 4
# 0 "" 2
	.loc 1 225 0
# 225 "s390-linux.c" 1
	.int 0x0
# 0 "" 2
	.loc 1 227 0
#NO_APP
	l	%r4,56(%r15)	#,
	l	%r14,56(%r15)	#,
	.cfi_restore 14
	br	%r4	#
	.cfi_endproc
.LFE39:
	.size	binary, .-binary
	.align	8
.globl main
	.type	main, @function
main:
.LFB40:
	.loc 1 231 0
	.cfi_startproc
	st	%r14,56(%r15)	#,
	.cfi_offset 14, -40
	.loc 1 233 0
	lhi	%r2,0	#,
	l	%r4,56(%r15)	#,
	l	%r14,56(%r15)	#,
	.cfi_restore 14
	br	%r4	#
	.cfi_endproc
.LFE40:
	.size	main, .-main
.globl static_long
.data
	.align	4
	.type	static_long, @object
	.size	static_long, 4
static_long:
	.long	305419896
.globl static_value
	.align	4
	.type	static_value, @object
	.size	static_value, 4
static_value:
	.long	10
.text
.Letext0:
	.section	.note.GNU-stack,"",@progbits
