	.file	"tic6x-elf.c"
	.c6xabi_attribute Tag_ABI_array_object_alignment, 0
	.c6xabi_attribute Tag_ABI_array_object_align_expected, 0
	.c6xabi_attribute Tag_ABI_stack_align_needed, 0
	.c6xabi_attribute Tag_ABI_stack_align_preserved, 0
	.c6xabi_attribute Tag_ABI_conformance, "1.0"
;# GNU C (GCC) version 4.9.4 (tic6x-elf)
;#	compiled by GNU C version 4.8.5, GMP version 6.1.2, MPFR version 3.1.5, MPC version 1.0.3
;# GGC heuristics: --param ggc-min-expand=100 --param ggc-min-heapsize=131072
;# options passed:  -nostdinc tic6x-elf.c -auxbase-strip tic6x-elf.s -g -O
;# -Wall -fno-builtin -fverbose-asm -fomit-frame-pointer -fno-inline
;# options enabled:  -faggressive-loop-optimizations -fauto-inc-dec
;# -fbranch-count-reg -fcombine-stack-adjustments -fcommon -fcompare-elim
;# -fcprop-registers -fdefer-pop -fdelete-null-pointer-checks
;# -fdwarf2-cfi-asm -fearly-inlining -feliminate-unused-debug-types
;# -fforward-propagate -ffunction-cse -fgcse-lm -fgnu-runtime -fgnu-unique
;# -fguess-branch-probability -fident -fif-conversion -fif-conversion2
;# -finline-atomics -finline-functions-called-once -fipa-profile
;# -fipa-pure-const -fipa-reference -fira-hoist-pressure
;# -fira-share-save-slots -fira-share-spill-slots -fivopts
;# -fkeep-static-consts -fleading-underscore -flifetime-dse -fmath-errno
;# -fmerge-constants -fmerge-debug-strings -fmove-loop-invariants
;# -fomit-frame-pointer -fpeephole -fprefetch-loop-arrays -freciprocal-math
;# -freg-struct-return -frename-registers -fsched-critical-path-heuristic
;# -fsched-dep-count-heuristic -fsched-group-heuristic -fsched-interblock
;# -fsched-last-insn-heuristic -fsched-rank-heuristic -fsched-spec
;# -fsched-spec-insn-heuristic -fsched-stalled-insns-dep -fshow-column
;# -fshrink-wrap -fsigned-zeros -fsplit-ivs-in-unroller -fsplit-wide-types
;# -fstrict-volatile-bitfields -fsync-libcalls -ftoplevel-reorder
;# -ftrapping-math -ftree-bit-ccp -ftree-ccp -ftree-ch -ftree-coalesce-vars
;# -ftree-copy-prop -ftree-copyrename -ftree-dce -ftree-dominator-opts
;# -ftree-dse -ftree-forwprop -ftree-fre -ftree-loop-if-convert
;# -ftree-loop-im -ftree-loop-ivcanon -ftree-loop-optimize
;# -ftree-parallelize-loops= -ftree-phiprop -ftree-pta -ftree-reassoc
;# -ftree-scev-cprop -ftree-sink -ftree-slsr -ftree-sra -ftree-ter
;# -funit-at-a-time -fvar-tracking-assignments -fverbose-asm
;# -fzero-initialized-in-bss -mlittle-endian

.text;
.Ltext0:
	.cfi_sections	.debug_frame
	.align	2
	.global	null
	.cfi_sections .debug_frame
	.type	null, @function
null:
.LFB0:
	.file 1 "tic6x-elf.c"
	.loc 1 2 0
	.cfi_startproc
		ret	.s2	B3	;#
		nop	5	;#
	.cfi_endproc
.LFE0:
	.size	null, .-null
	.align	2
	.global	return_zero
	.type	return_zero, @function
return_zero:
.LFB1:
	.loc 1 7 0
	.cfi_startproc
	.loc 1 9 0
		mvk	.d1	0, A4	;#,
		ret	.s2	B3	;#
		nop	5	;#
	.cfi_endproc
.LFE1:
	.size	return_zero, .-return_zero
	.align	2
	.global	return_one
	.type	return_one, @function
return_one:
.LFB2:
	.loc 1 12 0
	.cfi_startproc
	.loc 1 14 0
		mvk	.d1	1, A4	;#,
		ret	.s2	B3	;#
		nop	5	;#
	.cfi_endproc
.LFE2:
	.size	return_one, .-return_one
	.align	2
	.global	return_int_size
	.type	return_int_size, @function
return_int_size:
.LFB3:
	.loc 1 17 0
	.cfi_startproc
	.loc 1 19 0
		mvk	.d1	4, A4	;#,
		ret	.s2	B3	;#
		nop	5	;#
	.cfi_endproc
.LFE3:
	.size	return_int_size, .-return_int_size
	.align	2
	.global	return_pointer_size
	.type	return_pointer_size, @function
return_pointer_size:
.LFB4:
	.loc 1 22 0
	.cfi_startproc
	.loc 1 24 0
		mvk	.d1	4, A4	;#,
		ret	.s2	B3	;#
		nop	5	;#
	.cfi_endproc
.LFE4:
	.size	return_pointer_size, .-return_pointer_size
	.align	2
	.global	return_short_size
	.type	return_short_size, @function
return_short_size:
.LFB5:
	.loc 1 27 0
	.cfi_startproc
	.loc 1 29 0
		mvk	.d1	2, A4	;#,
		ret	.s2	B3	;#
		nop	5	;#
	.cfi_endproc
.LFE5:
	.size	return_short_size, .-return_short_size
	.align	2
	.global	return_long_size
	.type	return_long_size, @function
return_long_size:
.LFB6:
	.loc 1 32 0
	.cfi_startproc
	.loc 1 34 0
		mvk	.d1	4, A4	;#,
		ret	.s2	B3	;#
		nop	5	;#
	.cfi_endproc
.LFE6:
	.size	return_long_size, .-return_long_size
	.align	2
	.global	return_short
	.type	return_short, @function
return_short:
.LFB7:
	.loc 1 37 0
	.cfi_startproc
	.loc 1 39 0
		mvk	.s1	30600, A4	;#,
		ret	.s2	B3	;#
		nop	5	;#
	.cfi_endproc
.LFE7:
	.size	return_short, .-return_short
	.align	2
	.global	return_long
	.type	return_long, @function
return_long:
.LFB8:
	.loc 1 42 0
	.cfi_startproc
	.loc 1 44 0
		mvk	.s1	-26198, A4	;#,
		mvklh	.s1	30600, A4	;#,
		ret	.s2	B3	;#
		nop	5	;#
	.cfi_endproc
.LFE8:
	.size	return_long, .-return_long
	.align	2
	.global	return_short_upper
	.type	return_short_upper, @function
return_short_upper:
.LFB9:
	.loc 1 47 0
	.cfi_startproc
	.loc 1 49 0
		mvk	.s1	-18, A4	;#,
		ret	.s2	B3	;#
		nop	5	;#
	.cfi_endproc
.LFE9:
	.size	return_short_upper, .-return_short_upper
	.align	2
	.global	return_long_upper
	.type	return_long_upper, @function
return_long_upper:
.LFB10:
	.loc 1 52 0
	.cfi_startproc
	.loc 1 54 0
		mvk	.s1	-8756, A4	;#,
		mvklh	.s1	65518, A4	;#,
		ret	.s2	B3	;#
		nop	5	;#
	.cfi_endproc
.LFE10:
	.size	return_long_upper, .-return_long_upper
	.align	2
	.global	return_arg1
	.type	return_arg1, @function
return_arg1:
.LFB11:
	.loc 1 57 0
	.cfi_startproc
.LVL0:
	.loc 1 59 0
		ret	.s2	B3	;#
		nop	5	;#
	.cfi_endproc
.LFE11:
	.size	return_arg1, .-return_arg1
	.align	2
	.global	return_arg2
	.type	return_arg2, @function
return_arg2:
.LFB12:
	.loc 1 62 0
	.cfi_startproc
.LVL1:
	.loc 1 64 0
		mv	.l1x	B4, A4	;# b,
.LVL2:
		ret	.s2	B3	;#
		nop	5	;#
	.cfi_endproc
.LFE12:
	.size	return_arg2, .-return_arg2
	.align	2
	.global	add
	.type	add, @function
add:
.LFB13:
	.loc 1 67 0
	.cfi_startproc
.LVL3:
	.loc 1 69 0
		add	.d1x	A4, B4, A4	;# a, b,
.LVL4:
		ret	.s2	B3	;#
		nop	5	;#
	.cfi_endproc
.LFE13:
	.size	add, .-add
	.align	2
	.global	add3
	.type	add3, @function
add3:
.LFB14:
	.loc 1 72 0
	.cfi_startproc
.LVL5:
	.loc 1 73 0
		add	.d1x	A4, B4, A4	;# a, b, D.1271
.LVL6:
	.loc 1 74 0
		add	.d1	A4, A6, A4	;# D.1271, c,
		ret	.s2	B3	;#
		nop	5	;#
	.cfi_endproc
.LFE14:
	.size	add3, .-add3
	.align	2
	.global	add_two
	.type	add_two, @function
add_two:
.LFB15:
	.loc 1 77 0
	.cfi_startproc
.LVL7:
	.loc 1 79 0
		add	.d1	A4, 2, A4	;# a,,
.LVL8:
		ret	.s2	B3	;#
		nop	5	;#
	.cfi_endproc
.LFE15:
	.size	add_two, .-add_two
	.align	2
	.global	inc
	.type	inc, @function
inc:
.LFB16:
	.loc 1 82 0
	.cfi_startproc
.LVL9:
	.loc 1 84 0
		add	.d1	A4, 1, A4	;# a,,
.LVL10:
		ret	.s2	B3	;#
		nop	5	;#
	.cfi_endproc
.LFE16:
	.size	inc, .-inc
	.align	2
	.global	or
	.type	or, @function
or:
.LFB17:
	.loc 1 87 0
	.cfi_startproc
.LVL11:
	.loc 1 89 0
		or	.d1x	A4, B4, A4	;# a, b,
.LVL12:
		ret	.s2	B3	;#
		nop	5	;#
	.cfi_endproc
.LFE17:
	.size	or, .-or
	.align	2
	.global	or_one
	.type	or_one, @function
or_one:
.LFB18:
	.loc 1 92 0
	.cfi_startproc
.LVL13:
	.loc 1 94 0
		or	.d1	1, A4, A4	;#, a,
.LVL14:
		ret	.s2	B3	;#
		nop	5	;#
	.cfi_endproc
.LFE18:
	.size	or_one, .-or_one
	.align	2
	.global	load
	.type	load, @function
load:
.LFB19:
	.loc 1 97 0
	.cfi_startproc
.LVL15:
	.loc 1 98 0
		ldw	.d1t1	*A4, A4	;# *p_2(D), D.1280
		nop	4	;#
.LVL16:
	.loc 1 99 0
		ret	.s2	B3	;#
		nop	5	;#
	.cfi_endproc
.LFE19:
	.size	load, .-load
	.align	2
	.global	store
	.type	store, @function
store:
.LFB20:
	.loc 1 102 0
	.cfi_startproc
.LVL17:
	.loc 1 103 0
		mvk	.s1	255, A3	;#, tmp74
		stw	.d1t1	A3, *A4	;# tmp74, *p_2(D)
		ret	.s2	B3	;#
		nop	5	;#
	.cfi_endproc
.LFE20:
	.size	store, .-store
	.align	2
	.global	load_long
	.type	load_long, @function
load_long:
.LFB21:
	.loc 1 107 0
	.cfi_startproc
.LVL18:
	.loc 1 108 0
		ldw	.d1t1	*A4, A4	;# *p_2(D), D.1283
		nop	4	;#
.LVL19:
	.loc 1 109 0
		ret	.s2	B3	;#
		nop	5	;#
	.cfi_endproc
.LFE21:
	.size	load_long, .-load_long
	.align	2
	.global	store_long
	.type	store_long, @function
store_long:
.LFB22:
	.loc 1 112 0
	.cfi_startproc
.LVL20:
	.loc 1 113 0
		mvk	.s1	13124, A3	;#, tmp74
		mvklh	.s1	4386, A3	;#, tmp74
		stw	.d1t1	A3, *A4	;# tmp74, *p_2(D)
		ret	.s2	B3	;#
		nop	5	;#
	.cfi_endproc
.LFE22:
	.size	store_long, .-store_long
	.align	2
	.global	member
	.type	member, @function
member:
.LFB23:
	.loc 1 123 0
	.cfi_startproc
.LVL21:
	.loc 1 124 0
		mvk	.d1	1, A3	;#, tmp76
		stw	.d1t1	A3, *+A4(4)	;# tmp76, p_2(D)->b
	.loc 1 126 0
		ldw	.d1t1	*+A4(8), A4	;# p_2(D)->c,
		nop	4	;#
.LVL22:
		ret	.s2	B3	;#
		nop	5	;#
	.cfi_endproc
.LFE23:
	.size	member, .-member
	.align	2
	.global	get_static_value_addr
	.type	get_static_value_addr, @function
get_static_value_addr:
.LFB24:
	.loc 1 132 0
	.cfi_startproc
	.loc 1 134 0
		addaw	.d1x	B14, (static_value), A4	;#,
		ret	.s2	B3	;#
		nop	5	;#
	.cfi_endproc
.LFE24:
	.size	get_static_value_addr, .-get_static_value_addr
	.align	2
	.global	get_static_value
	.type	get_static_value, @function
get_static_value:
.LFB25:
	.loc 1 137 0
	.cfi_startproc
	.loc 1 139 0
		ldw	.d2t1	*+B14(static_value), A4	;# static_value,
		nop	4	;#
		ret	.s2	B3	;#
		nop	5	;#
	.cfi_endproc
.LFE25:
	.size	get_static_value, .-get_static_value
	.align	2
	.global	set_static_value
	.type	set_static_value, @function
set_static_value:
.LFB26:
	.loc 1 142 0
	.cfi_startproc
.LVL23:
	.loc 1 143 0
		stw	.d2t1	A4, *+B14(static_value)	;# a, static_value
		ret	.s2	B3	;#
		nop	5	;#
	.cfi_endproc
.LFE26:
	.size	set_static_value, .-set_static_value
	.align	2
	.global	set_stack
	.type	set_stack, @function
set_stack:
.LFB27:
	.loc 1 149 0
	.cfi_startproc
		sub	.d2	B15, 16, B15	;#,,
	.cfi_def_cfa_offset 16
	.loc 1 150 0
		mvk	.s1	254, A3	;#, tmp73
		stw	.d2t1	A3, *+B15(12)	;# tmp73, a
	.loc 1 151 0
		mvk	.s1	255, A4	;#, tmp74
		stw	.d2t1	A4, *+B15(8)	;# tmp74, b
	.loc 1 152 0
		add	.d2	B15, 16, B15	;#,,
		ret	.s2	B3	;#
		nop	5	;#
	.cfi_endproc
.LFE27:
	.size	set_stack, .-set_stack
	.align	2
	.global	use_stack
	.type	use_stack, @function
use_stack:
.LFB28:
	.loc 1 155 0
	.cfi_startproc
		sub	.d2	B15, 16, B15	;#,,
	.cfi_def_cfa_offset 16
	.loc 1 156 0
		mvk	.s1	254, A3	;#, tmp77
		stw	.d2t1	A3, *+B15(12)	;# tmp77, a
	.loc 1 157 0
		mvk	.s1	255, A4	;#, tmp78
		stw	.d2t1	A4, *+B15(8)	;# tmp78, b
	.loc 1 158 0
		ldw	.d2t1	*+B15(12), A5	;# a, D.1293
		nop	4	;#
		ldw	.d2t1	*+B15(8), A6	;# b, D.1293
		nop	4	;#
	.loc 1 159 0
		add	.d1	A5, A6, A4	;# D.1293, D.1293,
		add	.d2	B15, 16, B15	;#,,
		ret	.s2	B3	;#
		nop	5	;#
	.cfi_endproc
.LFE28:
	.size	use_stack, .-use_stack
	.align	2
	.global	call_self
	.type	call_self, @function
call_self:
.LFB29:
	.loc 1 162 0
	.cfi_startproc
		sub	.d2	B15, 16, B15	;#,,
	.cfi_def_cfa_offset 16
		stw	.d2t2	B3, *+B15(12)	;#,
	.cfi_offset 19, -4
	.loc 1 163 0
		callp	.s2	(call_self), B3	;#
.LVL24:
	.loc 1 164 0
		ldw	.d2t2	*+B15(12), B3	;#,
		nop	4	;#
		add	.d2	B15, 16, B15	;#,,
		ret	.s2	B3	;#
		nop	5	;#
	.cfi_endproc
.LFE29:
	.size	call_self, .-call_self
	.align	2
	.global	call_simple
	.type	call_simple, @function
call_simple:
.LFB30:
	.loc 1 167 0
	.cfi_startproc
.LVL25:
		sub	.d2	B15, 16, B15	;#,,
	.cfi_def_cfa_offset 16
		stw	.d2t2	B3, *+B15(12)	;#,
	.cfi_offset 19, -4
	.loc 1 168 0
		callp	.s2	(return_arg1), B3	;#
.LVL26:
	.loc 1 169 0
		ldw	.d2t2	*+B15(12), B3	;#,
		nop	4	;#
		add	.d2	B15, 16, B15	;#,,
		ret	.s2	B3	;#
		nop	5	;#
	.cfi_endproc
.LFE30:
	.size	call_simple, .-call_simple
	.align	2
	.global	call_complex1
	.type	call_complex1, @function
call_complex1:
.LFB31:
	.loc 1 172 0
	.cfi_startproc
		sub	.d2	B15, 16, B15	;#,,
	.cfi_def_cfa_offset 16
		stw	.d2t2	B3, *+B15(12)	;#,
	.cfi_offset 19, -4
	.loc 1 173 0
		mvk	.s1	254, A4	;#,
		callp	.s2	(return_arg1), B3	;#
.LVL27:
	.loc 1 174 0
		add	.d1	A4, 1, A4	;#,,
		ldw	.d2t2	*+B15(12), B3	;#,
		nop	4	;#
		add	.d2	B15, 16, B15	;#,,
		ret	.s2	B3	;#
		nop	5	;#
	.cfi_endproc
.LFE31:
	.size	call_complex1, .-call_complex1
	.align	2
	.global	call_complex2
	.type	call_complex2, @function
call_complex2:
.LFB32:
	.loc 1 177 0
	.cfi_startproc
.LVL28:
		sub	.d2	B15, 16, B15	;#,,
	.cfi_def_cfa_offset 16
		stw	.d2t2	B3, *+B15(16)	;#,
		stw	.d2t1	A10, *+B15(12)	;#,
	.cfi_offset 19, 0
	.cfi_offset 10, -4
		mv	.l1x	B4, A10	;# b, b
	.loc 1 178 0
		mv	.l1x	B4, A4	;# b,
.LVL29:
		callp	.s2	(return_arg1), B3	;#
.LVL30:
		stw	.d2t1	A4, *+B14(static_value)	;#, static_value
	.loc 1 180 0
		mv	.d1	A10, A4	;# b,
		ldw	.d2t1	*+B15(12), A10	;#,
		nop	4	;#
.LVL31:
		ldw	.d2t2	*+B15(16), B3	;#,
		nop	4	;#
		add	.d2	B15, 16, B15	;#,,
		ret	.s2	B3	;#
		nop	5	;#
	.cfi_endproc
.LFE32:
	.size	call_complex2, .-call_complex2
	.align	2
	.global	call_pointer
	.type	call_pointer, @function
call_pointer:
.LFB33:
	.loc 1 183 0
	.cfi_startproc
.LVL32:
		sub	.d2	B15, 16, B15	;#,,
	.cfi_def_cfa_offset 16
		stw	.d2t2	B3, *+B15(12)	;#,
	.cfi_offset 19, -4
	.loc 1 184 0
		call	.s2x	A4	;# f
		addkpc	.s2	.L39, B3, 4	;#,,
.L39:
	.loc 1 185 0
		ldw	.d2t2	*+B15(12), B3	;#,
		nop	4	;#
		add	.d2	B15, 16, B15	;#,,
		ret	.s2	B3	;#
		nop	5	;#
	.cfi_endproc
.LFE33:
	.size	call_pointer, .-call_pointer
	.align	2
	.global	condition
	.type	condition, @function
condition:
.LFB34:
	.loc 1 188 0
	.cfi_startproc
.LVL33:
	.loc 1 189 0
		mv	.l1x	B4, A3	;# b,
		cmpeq	.l1	A3, A4, A0	;#,, a, tmp77
	.loc 1 190 0
	[A0]	mvk	.d2	1, B4	;#, b
.LVL34:
	.loc 1 192 0
		add	.l1x	1, B4, A4	;#, b,
.LVL35:
		ret	.s2	B3	;#
		nop	5	;#
	.cfi_endproc
.LFE34:
	.size	condition, .-condition
	.align	2
	.global	loop
	.type	loop, @function
loop:
.LFB35:
	.loc 1 195 0
	.cfi_startproc
.LVL36:
		mv	.d1	A4, A5	;# n, n
.LVL37:
	.loc 1 197 0
		cmplt	.l1	0, A4, A1	;#,, n, tmp77
	[!A1]	b	.s2	.L45	;#,
		nop	5	;#
		mvk	.d1	0, A4	;#, sum
.LVL38:
		mvk	.d1	0, A3	;#, i
		sub	.d1	A5, A3, A0	;# n, i, tmp80
.LVL39:
.L44:
		sub	.d1	A0, 1, A0	;# tmp80,, tmp80
.LVL40:
	.loc 1 198 0 discriminator 3
		add	.d1	A4, A3, A4	;# sum, i, sum
.LVL41:
	.loc 1 197 0 discriminator 3
		add	.d1	A3, 1, A3	;# i,, i
.LVL42:
	[A0]	b	.s2	.L44	;#,
		nop	5	;#
		ret	.s2	B3	;#
		nop	5	;#
.LVL43:
.L45:
	.loc 1 196 0
		mvk	.d1	0, A4	;#, sum
.LVL44:
	.loc 1 200 0
		ret	.s2	B3	;#
		nop	5	;#
	.cfi_endproc
.LFE35:
	.size	loop, .-loop
	.align	2
	.global	many_args
	.type	many_args, @function
many_args:
.LFB36:
	.loc 1 204 0
	.cfi_startproc
.LVL45:
		sub	.d2	B15, 8, B15	;#,,
	.cfi_def_cfa_offset 8
		stw	.d2t2	B10, *+B15(8)	;#,
	.cfi_offset 26, 0
	.loc 1 205 0
		add	.d2x	B6, A4, B6	;# a3, a0, D.1309
.LVL46:
		add	.d2	B6, B8, B8	;# D.1309, a5, D.1309
.LVL47:
	.loc 1 206 0
		add	.d2	B8, B10, B4	;# D.1309, a7,
.LVL48:
		mv	.l1x	B4, A4	;#,
.LVL49:
		ldw	.d2t2	*+B15(8), B10	;#,
		nop	4	;#
		add	.d2	B15, 8, B15	;#,,
		ret	.s2	B3	;#
		nop	5	;#
	.cfi_endproc
.LFE36:
	.size	many_args, .-many_args
	.align	2
	.global	call_many_args
	.type	call_many_args, @function
call_many_args:
.LFB37:
	.loc 1 209 0
	.cfi_startproc
		sub	.d2	B15, 16, B15	;#,,
	.cfi_def_cfa_offset 16
		stw	.d2t2	B10, *+B15(16)	;#,
		stw	.d2t2	B3, *+B15(12)	;#,
		stw	.d2t1	A10, *+B15(8)	;#,
	.cfi_offset 26, 0
	.cfi_offset 19, -4
	.cfi_offset 10, -8
	.loc 1 210 0
		mvk	.d1	0, A4	;#,
		mvk	.d2	1, B4	;#,
		mvk	.d1	2, A6	;#,
		mvk	.d2	3, B6	;#,
		mvk	.d1	4, A8	;#,
		mvk	.d2	5, B8	;#,
		mvk	.d1	6, A10	;#,
		mvk	.d2	7, B10	;#,
		callp	.s2	(many_args), B3	;#
.LVL50:
	.loc 1 211 0
		ldw	.d2t1	*+B15(8), A10	;#,
		nop	4	;#
		ldw	.d2t2	*+B15(12), B3	;#,
		nop	4	;#
		ldw	.d2t2	*+B15(16), B10	;#,
		nop	4	;#
		add	.d2	B15, 16, B15	;#,,
		ret	.s2	B3	;#
		nop	5	;#
	.cfi_endproc
.LFE37:
	.size	call_many_args, .-call_many_args
	.align	2
	.global	direct
	.type	direct, @function
direct:
.LFB38:
	.loc 1 215 0
	.cfi_startproc
	.loc 1 216 0
	; #APP 
;# 216 "tic6x-elf.c" 1
	nop
;# 0 "" 2
	; #NO_APP 
		ret	.s2	B3	;#
		nop	5	;#
	.cfi_endproc
.LFE38:
	.size	direct, .-direct
	.align	2
	.global	binary
	.type	binary, @function
binary:
.LFB39:
	.loc 1 223 0
	.cfi_startproc
	.loc 1 224 0
	; #APP 
;# 224 "tic6x-elf.c" 1
	.align 4
;# 0 "" 2
	.loc 1 225 0
;# 225 "tic6x-elf.c" 1
	.int 0x0
;# 0 "" 2
	; #NO_APP 
		ret	.s2	B3	;#
		nop	5	;#
	.cfi_endproc
.LFE39:
	.size	binary, .-binary
	.align	2
	.global	main
	.type	main, @function
main:
.LFB40:
	.loc 1 231 0
	.cfi_startproc
	.loc 1 233 0
		mvk	.d1	0, A4	;#,
		ret	.s2	B3	;#
		nop	5	;#
	.cfi_endproc
.LFE40:
	.size	main, .-main
	.global	static_long
	.section	.neardata,"aw",@progbits
	.align	2
	.type	static_long, @object
	.size	static_long, 4
static_long:
	.long	305419896
	.global	static_value
	.align	2
	.type	static_value, @object
	.size	static_value, 4
static_value:
	.long	10
.text;
.Letext0: