	.file	"x86_64-linux.c"
# GNU C (GCC) version 4.9.4 (x86_64-linux)
#	compiled by GNU C version 4.8.5, GMP version 6.1.2, MPFR version 3.1.5, MPC version 1.0.3
# GGC heuristics: --param ggc-min-expand=100 --param ggc-min-heapsize=131072
# options passed:  -nostdinc x86_64-linux.c -m64 -mtune=generic
# -march=x86-64 -auxbase-strip x86_64-linux.s -g -O -Wall -fno-builtin
# -fverbose-asm -fomit-frame-pointer -fno-inline
# options enabled:  -faggressive-loop-optimizations
# -fasynchronous-unwind-tables -fauto-inc-dec -fbranch-count-reg
# -fcombine-stack-adjustments -fcommon -fcompare-elim -fcprop-registers
# -fdefer-pop -fdelete-null-pointer-checks -fdwarf2-cfi-asm
# -fearly-inlining -feliminate-unused-debug-types -fforward-propagate
# -ffunction-cse -fgcse-lm -fgnu-runtime -fgnu-unique
# -fguess-branch-probability -fident -fif-conversion -fif-conversion2
# -finline-atomics -finline-functions-called-once -fipa-profile
# -fipa-pure-const -fipa-reference -fira-hoist-pressure
# -fira-share-save-slots -fira-share-spill-slots -fivopts
# -fkeep-static-consts -fleading-underscore -flifetime-dse -fmath-errno
# -fmerge-constants -fmerge-debug-strings -fmove-loop-invariants
# -fomit-frame-pointer -fpeephole -fprefetch-loop-arrays
# -freg-struct-return -fsched-critical-path-heuristic
# -fsched-dep-count-heuristic -fsched-group-heuristic -fsched-interblock
# -fsched-last-insn-heuristic -fsched-rank-heuristic -fsched-spec
# -fsched-spec-insn-heuristic -fsched-stalled-insns-dep -fshow-column
# -fshrink-wrap -fsigned-zeros -fsplit-ivs-in-unroller -fsplit-wide-types
# -fstrict-volatile-bitfields -fsync-libcalls -ftoplevel-reorder
# -ftrapping-math -ftree-bit-ccp -ftree-ccp -ftree-ch -ftree-coalesce-vars
# -ftree-copy-prop -ftree-copyrename -ftree-cselim -ftree-dce
# -ftree-dominator-opts -ftree-dse -ftree-forwprop -ftree-fre
# -ftree-loop-if-convert -ftree-loop-im -ftree-loop-ivcanon
# -ftree-loop-optimize -ftree-parallelize-loops= -ftree-phiprop -ftree-pta
# -ftree-reassoc -ftree-scev-cprop -ftree-sink -ftree-slsr -ftree-sra
# -ftree-ter -funit-at-a-time -funwind-tables -fvar-tracking
# -fvar-tracking-assignments -fverbose-asm -fzero-initialized-in-bss
# -m128bit-long-double -m64 -m80387 -malign-stringops
# -mavx256-split-unaligned-load -mavx256-split-unaligned-store
# -mfancy-math-387 -mfp-ret-in-387 -mfxsr -mglibc -mieee-fp
# -mlong-double-80 -mmmx -mno-sse4 -mpush-args -mred-zone -msse -msse2
# -mtls-direct-seg-refs

	.text
.Ltext0:
	.globl	null
	.type	null, @function
null:
.LFB0:
	.file 1 "x86_64-linux.c"
	.loc 1 2 0
	.cfi_startproc
	rep ret
	.cfi_endproc
.LFE0:
	.size	null, .-null
	.globl	return_zero
	.type	return_zero, @function
return_zero:
.LFB1:
	.loc 1 7 0
	.cfi_startproc
	.loc 1 9 0
	movl	$0, %eax	#,
	ret
	.cfi_endproc
.LFE1:
	.size	return_zero, .-return_zero
	.globl	return_one
	.type	return_one, @function
return_one:
.LFB2:
	.loc 1 12 0
	.cfi_startproc
	.loc 1 14 0
	movl	$1, %eax	#,
	ret
	.cfi_endproc
.LFE2:
	.size	return_one, .-return_one
	.globl	return_int_size
	.type	return_int_size, @function
return_int_size:
.LFB3:
	.loc 1 17 0
	.cfi_startproc
	.loc 1 19 0
	movl	$4, %eax	#,
	ret
	.cfi_endproc
.LFE3:
	.size	return_int_size, .-return_int_size
	.globl	return_pointer_size
	.type	return_pointer_size, @function
return_pointer_size:
.LFB4:
	.loc 1 22 0
	.cfi_startproc
	.loc 1 24 0
	movl	$8, %eax	#,
	ret
	.cfi_endproc
.LFE4:
	.size	return_pointer_size, .-return_pointer_size
	.globl	return_short_size
	.type	return_short_size, @function
return_short_size:
.LFB5:
	.loc 1 27 0
	.cfi_startproc
	.loc 1 29 0
	movl	$2, %eax	#,
	ret
	.cfi_endproc
.LFE5:
	.size	return_short_size, .-return_short_size
	.globl	return_long_size
	.type	return_long_size, @function
return_long_size:
.LFB6:
	.loc 1 32 0
	.cfi_startproc
	.loc 1 34 0
	movl	$8, %eax	#,
	ret
	.cfi_endproc
.LFE6:
	.size	return_long_size, .-return_long_size
	.globl	return_short
	.type	return_short, @function
return_short:
.LFB7:
	.loc 1 37 0
	.cfi_startproc
	.loc 1 39 0
	movl	$30600, %eax	#,
	ret
	.cfi_endproc
.LFE7:
	.size	return_short, .-return_short
	.globl	return_long
	.type	return_long, @function
return_long:
.LFB8:
	.loc 1 42 0
	.cfi_startproc
	.loc 1 44 0
	movl	$2005440938, %eax	#,
	ret
	.cfi_endproc
.LFE8:
	.size	return_long, .-return_long
	.globl	return_short_upper
	.type	return_short_upper, @function
return_short_upper:
.LFB9:
	.loc 1 47 0
	.cfi_startproc
	.loc 1 49 0
	movl	$-18, %eax	#,
	ret
	.cfi_endproc
.LFE9:
	.size	return_short_upper, .-return_short_upper
	.globl	return_long_upper
	.type	return_long_upper, @function
return_long_upper:
.LFB10:
	.loc 1 52 0
	.cfi_startproc
	.loc 1 54 0
	movl	$4293844428, %eax	#,
	ret
	.cfi_endproc
.LFE10:
	.size	return_long_upper, .-return_long_upper
	.globl	return_arg1
	.type	return_arg1, @function
return_arg1:
.LFB11:
	.loc 1 57 0
	.cfi_startproc
.LVL0:
	movl	%edi, %eax	# a, a
	.loc 1 59 0
	ret
	.cfi_endproc
.LFE11:
	.size	return_arg1, .-return_arg1
	.globl	return_arg2
	.type	return_arg2, @function
return_arg2:
.LFB12:
	.loc 1 62 0
	.cfi_startproc
.LVL1:
	movl	%esi, %eax	# b, b
	.loc 1 64 0
	ret
	.cfi_endproc
.LFE12:
	.size	return_arg2, .-return_arg2
	.globl	add
	.type	add, @function
add:
.LFB13:
	.loc 1 67 0
	.cfi_startproc
.LVL2:
	.loc 1 68 0
	leal	(%rdi,%rsi), %eax	#, D.1601
	.loc 1 69 0
	ret
	.cfi_endproc
.LFE13:
	.size	add, .-add
	.globl	add3
	.type	add3, @function
add3:
.LFB14:
	.loc 1 72 0
	.cfi_startproc
.LVL3:
	.loc 1 73 0
	leal	(%rdi,%rsi), %eax	#, D.1603
	addl	%edx, %eax	# c, D.1603
	.loc 1 74 0
	ret
	.cfi_endproc
.LFE14:
	.size	add3, .-add3
	.globl	add_two
	.type	add_two, @function
add_two:
.LFB15:
	.loc 1 77 0
	.cfi_startproc
.LVL4:
	.loc 1 78 0
	leal	2(%rdi), %eax	#, D.1605
	.loc 1 79 0
	ret
	.cfi_endproc
.LFE15:
	.size	add_two, .-add_two
	.globl	inc
	.type	inc, @function
inc:
.LFB16:
	.loc 1 82 0
	.cfi_startproc
.LVL5:
	.loc 1 83 0
	leal	1(%rdi), %eax	#, a
.LVL6:
	.loc 1 84 0
	ret
	.cfi_endproc
.LFE16:
	.size	inc, .-inc
	.globl	or
	.type	or, @function
or:
.LFB17:
	.loc 1 87 0
	.cfi_startproc
.LVL7:
	.loc 1 88 0
	movl	%edi, %eax	# a, D.1608
	orl	%esi, %eax	# b, D.1608
	.loc 1 89 0
	ret
	.cfi_endproc
.LFE17:
	.size	or, .-or
	.globl	or_one
	.type	or_one, @function
or_one:
.LFB18:
	.loc 1 92 0
	.cfi_startproc
.LVL8:
	.loc 1 93 0
	movl	%edi, %eax	# a, D.1610
	orl	$1, %eax	#, D.1610
	.loc 1 94 0
	ret
	.cfi_endproc
.LFE18:
	.size	or_one, .-or_one
	.globl	load
	.type	load, @function
load:
.LFB19:
	.loc 1 97 0
	.cfi_startproc
.LVL9:
	.loc 1 98 0
	movl	(%rdi), %eax	# *p_2(D), D.1612
	.loc 1 99 0
	ret
	.cfi_endproc
.LFE19:
	.size	load, .-load
	.globl	store
	.type	store, @function
store:
.LFB20:
	.loc 1 102 0
	.cfi_startproc
.LVL10:
	.loc 1 103 0
	movl	$255, (%rdi)	#, *p_2(D)
	ret
	.cfi_endproc
.LFE20:
	.size	store, .-store
	.globl	load_long
	.type	load_long, @function
load_long:
.LFB21:
	.loc 1 107 0
	.cfi_startproc
.LVL11:
	.loc 1 108 0
	movq	(%rdi), %rax	# *p_2(D), D.1615
	.loc 1 109 0
	ret
	.cfi_endproc
.LFE21:
	.size	load_long, .-load_long
	.globl	store_long
	.type	store_long, @function
store_long:
.LFB22:
	.loc 1 112 0
	.cfi_startproc
.LVL12:
	.loc 1 113 0
	movq	$287454020, (%rdi)	#, *p_2(D)
	ret
	.cfi_endproc
.LFE22:
	.size	store_long, .-store_long
	.globl	member
	.type	member, @function
member:
.LFB23:
	.loc 1 123 0
	.cfi_startproc
.LVL13:
	.loc 1 124 0
	movl	$1, 4(%rdi)	#, p_2(D)->b
	.loc 1 125 0
	movl	8(%rdi), %eax	# p_2(D)->c, p_2(D)->c
	.loc 1 126 0
	ret
	.cfi_endproc
.LFE23:
	.size	member, .-member
	.globl	get_static_value_addr
	.type	get_static_value_addr, @function
get_static_value_addr:
.LFB24:
	.loc 1 132 0
	.cfi_startproc
	.loc 1 134 0
	movl	$static_value, %eax	#,
	ret
	.cfi_endproc
.LFE24:
	.size	get_static_value_addr, .-get_static_value_addr
	.globl	get_static_value
	.type	get_static_value, @function
get_static_value:
.LFB25:
	.loc 1 137 0
	.cfi_startproc
	.loc 1 139 0
	movl	static_value(%rip), %eax	# static_value,
	ret
	.cfi_endproc
.LFE25:
	.size	get_static_value, .-get_static_value
	.globl	set_static_value
	.type	set_static_value, @function
set_static_value:
.LFB26:
	.loc 1 142 0
	.cfi_startproc
.LVL14:
	.loc 1 143 0
	movl	%edi, static_value(%rip)	# a, static_value
	ret
	.cfi_endproc
.LFE26:
	.size	set_static_value, .-set_static_value
	.globl	set_stack
	.type	set_stack, @function
set_stack:
.LFB27:
	.loc 1 149 0
	.cfi_startproc
	.loc 1 150 0
	movl	$254, -4(%rsp)	#, a
	.loc 1 151 0
	movl	$255, -8(%rsp)	#, b
	ret
	.cfi_endproc
.LFE27:
	.size	set_stack, .-set_stack
	.globl	use_stack
	.type	use_stack, @function
use_stack:
.LFB28:
	.loc 1 155 0
	.cfi_startproc
	.loc 1 156 0
	movl	$254, -4(%rsp)	#, a
	.loc 1 157 0
	movl	$255, -8(%rsp)	#, b
	.loc 1 158 0
	movl	-4(%rsp), %edx	# a, D.1625
	movl	-8(%rsp), %eax	# b, D.1625
	addl	%edx, %eax	# D.1625, D.1625
	.loc 1 159 0
	ret
	.cfi_endproc
.LFE28:
	.size	use_stack, .-use_stack
	.globl	call_self
	.type	call_self, @function
call_self:
.LFB29:
	.loc 1 162 0
	.cfi_startproc
	subq	$8, %rsp	#,
	.cfi_def_cfa_offset 16
	.loc 1 163 0
	movl	$0, %eax	#,
	call	call_self	#
.LVL15:
	.loc 1 164 0
	addq	$8, %rsp	#,
	.cfi_def_cfa_offset 8
	ret
	.cfi_endproc
.LFE29:
	.size	call_self, .-call_self
	.globl	call_simple
	.type	call_simple, @function
call_simple:
.LFB30:
	.loc 1 167 0
	.cfi_startproc
.LVL16:
	.loc 1 168 0
	call	return_arg1	#
.LVL17:
	.loc 1 169 0
	rep ret
	.cfi_endproc
.LFE30:
	.size	call_simple, .-call_simple
	.globl	call_complex1
	.type	call_complex1, @function
call_complex1:
.LFB31:
	.loc 1 172 0
	.cfi_startproc
	.loc 1 173 0
	movl	$254, %edi	#,
	call	return_arg1	#
.LVL18:
	addl	$1, %eax	#, D.1630
	.loc 1 174 0
	ret
	.cfi_endproc
.LFE31:
	.size	call_complex1, .-call_complex1
	.globl	call_complex2
	.type	call_complex2, @function
call_complex2:
.LFB32:
	.loc 1 177 0
	.cfi_startproc
.LVL19:
	pushq	%rbx	#
	.cfi_def_cfa_offset 16
	.cfi_offset 3, -16
	movl	%esi, %ebx	# b, b
	.loc 1 178 0
	movl	%esi, %edi	# b,
.LVL20:
	call	return_arg1	#
.LVL21:
	movl	%eax, static_value(%rip)	# D.1632, static_value
	.loc 1 180 0
	movl	%ebx, %eax	# b,
	popq	%rbx	#
	.cfi_def_cfa_offset 8
.LVL22:
	ret
	.cfi_endproc
.LFE32:
	.size	call_complex2, .-call_complex2
	.globl	call_pointer
	.type	call_pointer, @function
call_pointer:
.LFB33:
	.loc 1 183 0
	.cfi_startproc
.LVL23:
	subq	$8, %rsp	#,
	.cfi_def_cfa_offset 16
	.loc 1 184 0
	call	*%rdi	# f
.LVL24:
	.loc 1 185 0
	addq	$8, %rsp	#,
	.cfi_def_cfa_offset 8
	ret
	.cfi_endproc
.LFE33:
	.size	call_pointer, .-call_pointer
	.globl	condition
	.type	condition, @function
condition:
.LFB34:
	.loc 1 188 0
	.cfi_startproc
.LVL25:
	.loc 1 189 0
	cmpl	%esi, %edi	# b, a
	.loc 1 190 0
	movl	$1, %eax	#, tmp88
	cmove	%eax, %esi	# b,, tmp88, b
.LVL26:
	.loc 1 191 0
	leal	1(%rsi), %eax	#, D.1635
	.loc 1 192 0
	ret
	.cfi_endproc
.LFE34:
	.size	condition, .-condition
	.globl	loop
	.type	loop, @function
loop:
.LFB35:
	.loc 1 195 0
	.cfi_startproc
.LVL27:
	.loc 1 197 0
	testl	%edi, %edi	# n
	jle	.L43	#,
	movl	$0, %eax	#, sum
	movl	$0, %edx	#, i
.LVL28:
.L42:
	.loc 1 198 0 discriminator 3
	addl	%edx, %eax	# i, sum
.LVL29:
	.loc 1 197 0 discriminator 3
	addl	$1, %edx	#, i
.LVL30:
	cmpl	%edi, %edx	# n, i
	jne	.L42	#,
	rep ret
.LVL31:
.L43:
	.loc 1 196 0
	movl	$0, %eax	#, sum
	.loc 1 200 0
	ret
	.cfi_endproc
.LFE35:
	.size	loop, .-loop
	.globl	many_args
	.type	many_args, @function
many_args:
.LFB36:
	.loc 1 204 0
	.cfi_startproc
.LVL32:
	.loc 1 205 0
	addl	%edi, %ecx	# a0, D.1642
.LVL33:
	addl	%ecx, %r9d	# D.1642, D.1642
.LVL34:
	movl	%r9d, %eax	# D.1642, D.1642
	addl	16(%rsp), %eax	# a7, D.1642
	.loc 1 206 0
	ret
	.cfi_endproc
.LFE36:
	.size	many_args, .-many_args
	.globl	call_many_args
	.type	call_many_args, @function
call_many_args:
.LFB37:
	.loc 1 209 0
	.cfi_startproc
	.loc 1 210 0
	pushq	$7	#
	.cfi_def_cfa_offset 16
	pushq	$6	#
	.cfi_def_cfa_offset 24
	movl	$5, %r9d	#,
	movl	$4, %r8d	#,
	movl	$3, %ecx	#,
	movl	$2, %edx	#,
	movl	$1, %esi	#,
	movl	$0, %edi	#,
	call	many_args	#
.LVL35:
	addq	$16, %rsp	#,
	.cfi_def_cfa_offset 8
	.loc 1 211 0
	ret
	.cfi_endproc
.LFE37:
	.size	call_many_args, .-call_many_args
	.globl	direct
	.type	direct, @function
direct:
.LFB38:
	.loc 1 215 0
	.cfi_startproc
	.loc 1 216 0
#APP
# 216 "x86_64-linux.c" 1
	nop
# 0 "" 2
#NO_APP
	ret
	.cfi_endproc
.LFE38:
	.size	direct, .-direct
	.globl	binary
	.type	binary, @function
binary:
.LFB39:
	.loc 1 223 0
	.cfi_startproc
	.loc 1 224 0
#APP
# 224 "x86_64-linux.c" 1
	.align 4
# 0 "" 2
	.loc 1 225 0
# 225 "x86_64-linux.c" 1
	.int 0x0
# 0 "" 2
#NO_APP
	ret
	.cfi_endproc
.LFE39:
	.size	binary, .-binary
	.globl	main
	.type	main, @function
main:
.LFB40:
	.loc 1 231 0
	.cfi_startproc
	.loc 1 233 0
	movl	$0, %eax	#,
	ret
	.cfi_endproc
.LFE40:
	.size	main, .-main
	.globl	static_long
	.data
	.align 8
	.type	static_long, @object
	.size	static_long, 8
static_long:
	.quad	305419896
	.globl	static_value
	.align 4
	.type	static_value, @object
	.size	static_value, 4
static_value:
	.long	10
	.text
.Letext0:
	.section	.note.GNU-stack,"",@progbits
