	.cpu generic+fp+simd
	.file	"aarch64-elf.c"
// GNU C (GCC) version 4.9.4 (aarch64-elf)
//	compiled by GNU C version 4.8.5, GMP version 6.1.2, MPFR version 3.1.5, MPC version 1.0.3
// GGC heuristics: --param ggc-min-expand=100 --param ggc-min-heapsize=131072
// options passed:  -nostdinc -D ___FreeBSD___ -D ARCH="aarch64-elf"
// aarch64-elf.c -mlittle-endian -mabi=lp64 -auxbase-strip aarch64-elf.s -g
// -O -Wall -fno-builtin -fverbose-asm -fomit-frame-pointer -fno-inline
// options enabled:  -faggressive-loop-optimizations -fauto-inc-dec
// -fbranch-count-reg -fcombine-stack-adjustments -fcommon -fcompare-elim
// -fcprop-registers -fdefer-pop -fdelete-null-pointer-checks
// -fdwarf2-cfi-asm -fearly-inlining -feliminate-unused-debug-types
// -fforward-propagate -ffunction-cse -fgcse-lm -fgnu-runtime -fgnu-unique
// -fguess-branch-probability -fident -fif-conversion -fif-conversion2
// -finline-atomics -finline-functions-called-once -fipa-profile
// -fipa-pure-const -fipa-reference -fira-hoist-pressure
// -fira-share-save-slots -fira-share-spill-slots -fivopts
// -fkeep-static-consts -fleading-underscore -flifetime-dse -fmath-errno
// -fmerge-constants -fmerge-debug-strings -fmove-loop-invariants
// -fomit-frame-pointer -fpeephole -fprefetch-loop-arrays
// -freg-struct-return -fsched-critical-path-heuristic
// -fsched-dep-count-heuristic -fsched-group-heuristic -fsched-interblock
// -fsched-last-insn-heuristic -fsched-rank-heuristic -fsched-spec
// -fsched-spec-insn-heuristic -fsched-stalled-insns-dep -fsection-anchors
// -fshow-column -fshrink-wrap -fsigned-zeros -fsplit-ivs-in-unroller
// -fsplit-wide-types -fstrict-volatile-bitfields -fsync-libcalls
// -ftoplevel-reorder -ftrapping-math -ftree-bit-ccp -ftree-ccp -ftree-ch
// -ftree-coalesce-vars -ftree-copy-prop -ftree-copyrename -ftree-cselim
// -ftree-dce -ftree-dominator-opts -ftree-dse -ftree-forwprop -ftree-fre
// -ftree-loop-if-convert -ftree-loop-im -ftree-loop-ivcanon
// -ftree-loop-optimize -ftree-parallelize-loops= -ftree-phiprop -ftree-pta
// -ftree-reassoc -ftree-scev-cprop -ftree-sink -ftree-slsr -ftree-sra
// -ftree-ter -funit-at-a-time -fvar-tracking -fvar-tracking-assignments
// -fverbose-asm -fzero-initialized-in-bss -mlittle-endian -mlra

	.text
.Ltext0:
	.cfi_sections	.debug_frame
	.align	2
	.global	exit
	.type	exit, %function
exit:
.LFB0:
	.file 1 "aarch64-elf.c"
	.loc 1 30 0
	.cfi_startproc
.LVL0:
	sub	sp, sp, #16	//,,
	.cfi_def_cfa_offset 16
	str	x30, [sp]	//,
	.cfi_offset 30, -16
	.loc 1 31 0
	bl	__exit	//
.LVL1:
	.cfi_endproc
.LFE0:
	.size	exit, .-exit
	.align	2
	.global	write1
	.type	write1, %function
write1:
.LFB1:
	.loc 1 35 0
	.cfi_startproc
.LVL2:
	sub	sp, sp, #32	//,,
	.cfi_def_cfa_offset 32
	str	x30, [sp]	//,
	.cfi_offset 30, -32
	add	x2, sp, 32	// tmp76,,
	strb	w1, [x2,-1]!	// c, c
	.loc 1 36 0
	mov	x1, x2	//, tmp76
.LVL3:
	mov	w2, 1	//,
	bl	__write	//
.LVL4:
	.loc 1 37 0
	ldr	x30, [sp]	//,
	.cfi_restore 30
	add	sp, sp, 32	//,,
	.cfi_def_cfa_offset 0
.LVL5:
	ret
	.cfi_endproc
.LFE1:
	.size	write1, .-write1
	.align	2
	.global	putchar
	.type	putchar, %function
putchar:
.LFB2:
	.loc 1 40 0
	.cfi_startproc
.LVL6:
	sub	sp, sp, #16	//,,
	.cfi_def_cfa_offset 16
	stp	x19, x30, [sp]	//,,
	.cfi_offset 19, -16
	.cfi_offset 30, -8
	mov	w19, w1	// c, c
	.loc 1 41 0
	bl	write1	//
.LVL7:
	.loc 1 43 0
	mov	w0, w19	//, c
	ldp	x19, x30, [sp]	//,,
	.cfi_restore 30
	.cfi_restore 19
.LVL8:
	add	sp, sp, 16	//,,
	.cfi_def_cfa_offset 0
	ret
	.cfi_endproc
.LFE2:
	.size	putchar, .-putchar
	.align	2
	.global	puts
	.type	puts, %function
puts:
.LFB3:
	.loc 1 46 0
	.cfi_startproc
.LVL9:
	sub	sp, sp, #32	//,,
	.cfi_def_cfa_offset 32
	stp	x19, x20, [sp]	//,,
	str	x30, [sp,16]	//,
	.cfi_offset 19, -32
	.cfi_offset 20, -24
	.cfi_offset 30, -16
	mov	w20, w0	// fd, fd
	mov	x19, x1	// str, str
	.loc 1 47 0
	ldrb	w1, [x1]	// D.2227, *str_3(D)
.LVL10:
	cbz	w1, .L5	// D.2227,
.LVL11:
.L7:
	.loc 1 48 0 discriminator 2
	mov	w0, w20	//, fd
	bl	putchar	//
.LVL12:
	.loc 1 47 0 discriminator 2
	ldrb	w1, [x19,1]!	// D.2227, MEM[base: str_9, offset: 0B]
.LVL13:
	cbnz	w1, .L7	// D.2227,
.LVL14:
.L5:
	.loc 1 50 0
	mov	w0, 0	//,
	ldp	x19, x20, [sp]	//,,
	.cfi_restore 20
	.cfi_restore 19
.LVL15:
	ldr	x30, [sp,16]	//,
	.cfi_restore 30
	add	sp, sp, 32	//,,
	.cfi_def_cfa_offset 0
	ret
	.cfi_endproc
.LFE3:
	.size	puts, .-puts
	.align	2
	.global	putxval
	.type	putxval, %function
putxval:
.LFB4:
	.loc 1 83 0
	.cfi_startproc
.LVL16:
	sub	sp, sp, #48	//,,
	.cfi_def_cfa_offset 48
	str	x30, [sp]	//,
	.cfi_offset 30, -48
.LVL17:
	.loc 1 88 0
	strb	wzr, [sp,40]	//, MEM[(char *)&buf + 16B]
	.loc 1 90 0
	cbnz	x1, .L10	// value,
	cmp	w2, wzr	// column,
	cset	w3, eq	// D.2236,
	.loc 1 91 0
	add	w2, w2, w3	// column, column, D.2236
.LVL18:
.L10:
	.loc 1 83 0
	add	x4, sp, 39	// p,,
.LVL19:
	.loc 1 94 0
	ldr	x6, .LC2	// tmp108,
	b	.L11	//
.LVL20:
.L13:
	and	x5, x1, 15	// D.2237, value,
	ldrb	w5, [x6,x5]	//,* D.2237
	strb	w5, [x4],-1	// tmp96, MEM[base: p_20, offset: 1B]
.LVL21:
	.loc 1 95 0
	lsr	x1, x1, 4	// value, value,
.LVL22:
	.loc 1 96 0
	sub	w2, w2, w3	// column, column, D.2236
.LVL23:
.L11:
	.loc 1 93 0
	cmp	w2, wzr	// column,
	cset	w3, ne	// D.2236,
	cbnz	w3, .L13	// D.2236,
	cbnz	x1, .L13	// value,
	.loc 1 99 0
	add	x1, x4, 1	//, p,
.LVL24:
	bl	puts	//
.LVL25:
	.loc 1 102 0
	mov	w0, 0	//,
	ldr	x30, [sp]	//,
	.cfi_restore 30
	add	sp, sp, 48	//,,
	.cfi_def_cfa_offset 0
	ret
	.cfi_endproc
.LFE4:
	.size	putxval, .-putxval
	.align	3
.LC2:
	.xword	.LC1
	.align	2
	.global	main
	.type	main, %function
main:
.LFB5:
	.loc 1 105 0
	.cfi_startproc
	sub	sp, sp, #16	//,,
	.cfi_def_cfa_offset 16
	str	x30, [sp]	//,
	.cfi_offset 30, -16
.LVL26:
	.loc 1 107 0
	mov	w0, 1	//,
	ldr	x1, .LC4	//,
	bl	puts	//
.LVL27:
	.loc 1 108 0
	mov	w0, 1	//,
	ldr	x1, .LC5	// tmp77,
	ldr	x1, [x1]	//, data_value
	mov	w2, 0	//,
	bl	putxval	//
.LVL28:
	.loc 1 109 0
	mov	w0, 1	//,
	ldr	x1, .LC7	//,
	bl	puts	//
.LVL29:
	.loc 1 110 0
	mov	w0, 0	//,
	bl	exit	//
.LVL30:
	.cfi_endproc
.LFE5:
	.size	main, .-main
	.align	3
.LC4:
	.xword	.LC3
	.align	3
.LC5:
	.xword	.LANCHOR0
	.align	3
.LC7:
	.xword	.LC6
	.comm	bss_value,4,4
	.global	data_value
	.data
	.align	3
.LANCHOR0 = . + 0
	.type	data_value, %object
	.size	data_value, 8
data_value:
	.xword	2880305870
	.section	.rodata.str1.8,"aMS",%progbits,1
	.align	3
.LC1:
	.string	"0123456789abcdef"
	.zero	7
.LC3:
	.string	"Hello World! "
	.zero	2
.LC6:
	.string	" This architecture is aarch64-elf\n"
	.text
.Letext0:
	.file 2 "syscall.h"