	.file	"arm-elf.c"
@ GNU C (GCC) version 4.9.4 (arm-elf)
@	compiled by GNU C version 4.8.5, GMP version 6.1.2, MPFR version 3.1.5, MPC version 1.0.3
@ GGC heuristics: --param ggc-min-expand=100 --param ggc-min-heapsize=131072
@ options passed:  -nostdinc -D__ELF__ -D ___FreeBSD___ -D ARCH="arm-elf"
@ arm-elf.c -auxbase-strip arm-elf.s -g -O -Wall -fno-builtin -fverbose-asm
@ -fomit-frame-pointer -fno-inline
@ options enabled:  -faggressive-loop-optimizations -fauto-inc-dec
@ -fbranch-count-reg -fcombine-stack-adjustments -fcommon -fcompare-elim
@ -fcprop-registers -fdefer-pop -fdelete-null-pointer-checks
@ -fdwarf2-cfi-asm -fearly-inlining -feliminate-unused-debug-types
@ -fforward-propagate -ffunction-cse -fgcse-lm -fgnu-runtime -fgnu-unique
@ -fguess-branch-probability -fident -fif-conversion -fif-conversion2
@ -finline-atomics -finline-functions-called-once -fipa-profile
@ -fipa-pure-const -fipa-reference -fira-hoist-pressure
@ -fira-share-save-slots -fira-share-spill-slots -fivopts
@ -fkeep-static-consts -fleading-underscore -flifetime-dse -fmath-errno
@ -fmerge-constants -fmerge-debug-strings -fmove-loop-invariants
@ -fomit-frame-pointer -fpeephole -fprefetch-loop-arrays
@ -freg-struct-return -fsched-critical-path-heuristic
@ -fsched-dep-count-heuristic -fsched-group-heuristic -fsched-interblock
@ -fsched-last-insn-heuristic -fsched-pressure -fsched-rank-heuristic
@ -fsched-spec -fsched-spec-insn-heuristic -fsched-stalled-insns-dep
@ -fsection-anchors -fshow-column -fsigned-zeros -fsplit-ivs-in-unroller
@ -fsplit-wide-types -fstrict-volatile-bitfields -fsync-libcalls
@ -ftoplevel-reorder -ftrapping-math -ftree-bit-ccp -ftree-ccp -ftree-ch
@ -ftree-coalesce-vars -ftree-copy-prop -ftree-copyrename -ftree-cselim
@ -ftree-dce -ftree-dominator-opts -ftree-dse -ftree-forwprop -ftree-fre
@ -ftree-loop-if-convert -ftree-loop-im -ftree-loop-ivcanon
@ -ftree-loop-optimize -ftree-parallelize-loops= -ftree-phiprop -ftree-pta
@ -ftree-reassoc -ftree-scev-cprop -ftree-sink -ftree-slsr -ftree-sra
@ -ftree-ter -funit-at-a-time -fvar-tracking -fvar-tracking-assignments
@ -fverbose-asm -fzero-initialized-in-bss -mapcs-frame -marm
@ -mlittle-endian -mlra -mpic-data-is-text-relative -msched-prolog
@ -mvectorize-with-neon-quad

	.text
.Ltext0:
	.cfi_sections	.debug_frame
	.align	2
	.global	exit
	.type	exit, %function
exit:
.LFB0:
	.file 1 "arm-elf.c"
	.loc 1 30 0
	.cfi_startproc
	@ Volatile: function does not return.
	@ args = 0, pretend = 0, frame = 0
	@ frame_needed = 1, uses_anonymous_args = 0
.LVL0:
	mov	ip, sp	@,
	.cfi_def_cfa_register 12
	stmfd	sp!, {fp, ip, lr, pc}	@,
	.cfi_offset 11, -16
	.cfi_offset 13, -12
	.cfi_offset 14, -8
	sub	fp, ip, #4	@,,
	.cfi_def_cfa 11, 4
	.loc 1 31 0
	bl	__exit	@
.LVL1:
	.cfi_endproc
.LFE0:
	.size	exit, .-exit
	.align	2
	.global	write1
	.type	write1, %function
write1:
.LFB1:
	.loc 1 35 0
	.cfi_startproc
	@ args = 0, pretend = 0, frame = 4
	@ frame_needed = 1, uses_anonymous_args = 0
.LVL2:
	mov	ip, sp	@,
	.cfi_def_cfa_register 12
	stmfd	sp!, {fp, ip, lr, pc}	@,
	.cfi_offset 11, -16
	.cfi_offset 13, -12
	.cfi_offset 14, -8
	sub	fp, ip, #4	@,,
	.cfi_def_cfa 11, 4
	sub	sp, sp, #4	@,,
	sub	r3, fp, #12	@ tmp115,,
	strb	r1, [r3, #-4]!	@ c, c
	.loc 1 36 0
	mov	r1, r3	@, tmp115
.LVL3:
	mov	r2, #1	@,
	bl	__write	@
.LVL4:
	.loc 1 37 0
	ldmfd	sp, {r3, fp, sp, pc}	@
	.cfi_endproc
.LFE1:
	.size	write1, .-write1
	.align	2
	.global	putchar
	.type	putchar, %function
putchar:
.LFB2:
	.loc 1 40 0
	.cfi_startproc
	@ args = 0, pretend = 0, frame = 0
	@ frame_needed = 1, uses_anonymous_args = 0
.LVL5:
	mov	ip, sp	@,
	.cfi_def_cfa_register 12
	stmfd	sp!, {r4, fp, ip, lr, pc}	@,
	.cfi_offset 4, -20
	.cfi_offset 11, -16
	.cfi_offset 13, -12
	.cfi_offset 14, -8
	sub	fp, ip, #4	@,,
	.cfi_def_cfa 11, 4
	mov	r4, r1	@ c, c
	.loc 1 41 0
	and	r1, r1, #255	@ D.1041, c,
.LVL6:
	bl	write1	@
.LVL7:
	.loc 1 43 0
	mov	r0, r4	@, c
	ldmfd	sp, {r4, fp, sp, pc}	@
	.cfi_endproc
.LFE2:
	.size	putchar, .-putchar
	.align	2
	.global	puts
	.type	puts, %function
puts:
.LFB3:
	.loc 1 46 0
	.cfi_startproc
	@ args = 0, pretend = 0, frame = 0
	@ frame_needed = 1, uses_anonymous_args = 0
.LVL8:
	mov	ip, sp	@,
	.cfi_def_cfa_register 12
	stmfd	sp!, {r4, r5, fp, ip, lr, pc}	@,
	.cfi_offset 4, -24
	.cfi_offset 5, -20
	.cfi_offset 11, -16
	.cfi_offset 13, -12
	.cfi_offset 14, -8
	sub	fp, ip, #4	@,,
	.cfi_def_cfa 11, 4
	mov	r5, r0	@ fd, fd
	mov	r4, r1	@ str, str
	.loc 1 47 0
	ldrb	r1, [r1]	@ zero_extendqisi2	@ D.1053, *str_3(D)
.LVL9:
	cmp	r1, #0	@ D.1053,
	beq	.L5	@,
.LVL10:
.L7:
	.loc 1 48 0 discriminator 2
	mov	r0, r5	@, fd
	bl	putchar	@
.LVL11:
	.loc 1 47 0 discriminator 2
	ldrb	r1, [r4, #1]!	@ zero_extendqisi2	@ D.1053, MEM[base: str_9, offset: 0B]
.LVL12:
	cmp	r1, #0	@ D.1053,
	bne	.L7	@,
.LVL13:
.L5:
	.loc 1 50 0
	mov	r0, #0	@,
	ldmfd	sp, {r4, r5, fp, sp, pc}	@
	.cfi_endproc
.LFE3:
	.size	puts, .-puts
	.align	2
	.global	putxval
	.type	putxval, %function
putxval:
.LFB4:
	.loc 1 83 0
	.cfi_startproc
	@ args = 0, pretend = 0, frame = 20
	@ frame_needed = 1, uses_anonymous_args = 0
.LVL14:
	mov	ip, sp	@,
	.cfi_def_cfa_register 12
	stmfd	sp!, {r4, fp, ip, lr, pc}	@,
	.cfi_offset 4, -20
	.cfi_offset 11, -16
	.cfi_offset 13, -12
	.cfi_offset 14, -8
	sub	fp, ip, #4	@,,
	.cfi_def_cfa 11, 4
	sub	sp, sp, #20	@,,
.LVL15:
	.loc 1 88 0
	mov	r3, #0	@ tmp125,
	strb	r3, [fp, #-20]	@ tmp125, MEM[(char *)&buf + 16B]
	.loc 1 90 0
	mov	r3, r1	@ value, value
	mov	ip, r2	@ column, column
	cmp	r1, #0	@ value,
	cmpeq	r2, #0	@, column,
	.loc 1 91 0
	addeq	ip, r2, #1	@ column, column,
.LVL16:
	.loc 1 83 0
	sub	r1, fp, #21	@ p,,
.LVL17:
	.loc 1 94 0
	ldr	r4, .L14	@ tmp147,
	b	.L11	@
.L13:
	and	lr, r3, #15	@ D.1068, value,
	ldrb	lr, [r4, lr]	@ zero_extendqisi2	@ tmp136,* D.1068
	strb	lr, [r1], #-1	@ tmp136, MEM[base: p_20, offset: 1B]
.LVL18:
	.loc 1 95 0
	mov	r3, r3, lsr #4	@ value, value,
.LVL19:
	.loc 1 96 0
	cmp	r2, #0	@ D.1067,
	subne	ip, ip, #1	@ column, column,
.LVL20:
.L11:
	.loc 1 93 0
	adds	r2, ip, #0	@ D.1067, column,
	movne	r2, #1	@ D.1067,
	cmp	ip, #0	@ column,
	cmpeq	r3, #0	@, value,
	bne	.L13	@,
	.loc 1 99 0
	add	r1, r1, #1	@, p,
.LVL21:
	bl	puts	@
.LVL22:
	.loc 1 102 0
	mov	r0, #0	@,
	sub	sp, fp, #16	@,,
	.cfi_def_cfa 13, 20
	ldmfd	sp, {r4, fp, sp, pc}	@
.L15:
	.align	2
.L14:
	.word	.LC0
	.cfi_endproc
.LFE4:
	.size	putxval, .-putxval
	.align	2
	.global	main
	.type	main, %function
main:
.LFB5:
	.loc 1 105 0
	.cfi_startproc
	@ args = 0, pretend = 0, frame = 0
	@ frame_needed = 1, uses_anonymous_args = 0
	mov	ip, sp	@,
	.cfi_def_cfa_register 12
	stmfd	sp!, {fp, ip, lr, pc}	@,
	.cfi_offset 11, -16
	.cfi_offset 13, -12
	.cfi_offset 14, -8
	sub	fp, ip, #4	@,,
	.cfi_def_cfa 11, 4
.LVL23:
	.loc 1 107 0
	mov	r0, #1	@,
	ldr	r1, .L17	@,
	bl	puts	@
.LVL24:
	.loc 1 108 0
	mov	r0, #1	@,
	ldr	r3, .L17+4	@ tmp114,
	ldr	r1, [r3]	@, data_value
	mov	r2, #0	@,
	bl	putxval	@
.LVL25:
	.loc 1 109 0
	mov	r0, #1	@,
	ldr	r1, .L17+8	@,
	bl	puts	@
.LVL26:
	.loc 1 110 0
	mov	r0, #0	@,
	bl	exit	@
.LVL27:
.L18:
	.align	2
.L17:
	.word	.LC1
	.word	.LANCHOR0
	.word	.LC2
	.cfi_endproc
.LFE5:
	.size	main, .-main
	.comm	bss_value,4,4
	.global	data_value
	.data
	.align	2
	.set	.LANCHOR0,. + 0
	.type	data_value, %object
	.size	data_value, 4
data_value:
	.word	-1414661426
	.section	.rodata.str1.4,"aMS",%progbits,1
	.align	2
.LC0:
	.ascii	"0123456789abcdef\000"
	.space	3
.LC1:
	.ascii	"Hello World! \000"
	.space	2
.LC2:
	.ascii	" This architecture is arm-elf\012\000"
	.text
.Letext0:
	.file 2 "syscall.h"