	.file	"arm16-elf.c"
@ GNU C (GCC) version 4.9.4 (arm-elf)
@	compiled by GNU C version 4.8.5, GMP version 6.1.2, MPFR version 3.1.5, MPC version 1.0.3
@ GGC heuristics: --param ggc-min-expand=100 --param ggc-min-heapsize=131072
@ options passed:  -nostdinc -D__ELF__ -D ___FreeBSD___ -D ARCH="arm16-elf"
@ arm16-elf.c -mthumb -mthumb-interwork -auxbase-strip arm16-elf.s -g -O
@ -Wall -fno-builtin -fverbose-asm -fomit-frame-pointer -fno-inline
@ options enabled:  -faggressive-loop-optimizations -fauto-inc-dec
@ -fbranch-count-reg -fcombine-stack-adjustments -fcommon -fcompare-elim
@ -fcprop-registers -fdefer-pop -fdelete-null-pointer-checks
@ -fdwarf2-cfi-asm -fearly-inlining -feliminate-unused-debug-types
@ -fforward-propagate -ffunction-cse -fgcse-lm -fgnu-runtime -fgnu-unique
@ -fguess-branch-probability -fident -fif-conversion -fif-conversion2
@ -finline-atomics -finline-functions-called-once -fipa-profile
@ -fipa-pure-const -fipa-reference -fira-hoist-pressure
@ -fira-share-save-slots -fira-share-spill-slots -fivopts
@ -fkeep-static-consts -fleading-underscore -flifetime-dse -fmath-errno
@ -fmerge-constants -fmerge-debug-strings -fmove-loop-invariants
@ -fomit-frame-pointer -fpeephole -fprefetch-loop-arrays
@ -freg-struct-return -fsched-critical-path-heuristic
@ -fsched-dep-count-heuristic -fsched-group-heuristic -fsched-interblock
@ -fsched-last-insn-heuristic -fsched-pressure -fsched-rank-heuristic
@ -fsched-spec -fsched-spec-insn-heuristic -fsched-stalled-insns-dep
@ -fsection-anchors -fshow-column -fshrink-wrap -fsigned-zeros
@ -fsplit-ivs-in-unroller -fsplit-wide-types -fstrict-volatile-bitfields
@ -fsync-libcalls -ftoplevel-reorder -ftrapping-math -ftree-bit-ccp
@ -ftree-ccp -ftree-ch -ftree-coalesce-vars -ftree-copy-prop
@ -ftree-copyrename -ftree-cselim -ftree-dce -ftree-dominator-opts
@ -ftree-dse -ftree-forwprop -ftree-fre -ftree-loop-if-convert
@ -ftree-loop-im -ftree-loop-ivcanon -ftree-loop-optimize
@ -ftree-parallelize-loops= -ftree-phiprop -ftree-pta -ftree-reassoc
@ -ftree-scev-cprop -ftree-sink -ftree-slsr -ftree-sra -ftree-ter
@ -funit-at-a-time -fvar-tracking -fvar-tracking-assignments -fverbose-asm
@ -fzero-initialized-in-bss -mlittle-endian -mlra
@ -mpic-data-is-text-relative -msched-prolog -mthumb -mthumb-interwork
@ -mvectorize-with-neon-quad

	.text
.Ltext0:
	.cfi_sections	.debug_frame
	.align	2
	.global	exit
	.code	16
	.thumb_func
	.type	exit, %function
exit:
.LFB0:
	.file 1 "arm16-elf.c"
	.loc 1 30 0
	.cfi_startproc
.LVL0:
	push	{lr}	@
	.cfi_def_cfa_offset 4
	.cfi_offset 14, -4
	.loc 1 31 0
	bl	__exit	@
.LVL1:
	.cfi_endproc
.LFE0:
	.size	exit, .-exit
	.align	2
	.global	write1
	.code	16
	.thumb_func
	.type	write1, %function
write1:
.LFB1:
	.loc 1 35 0
	.cfi_startproc
.LVL2:
	push	{lr}	@
	.cfi_def_cfa_offset 4
	.cfi_offset 14, -4
	sub	sp, sp, #4	@,,
	.cfi_def_cfa_offset 8
	mov	r3, sp	@ tmp118,
	strb	r1, [r3]	@ c, c
	.loc 1 36 0
	mov	r1, sp	@,
.LVL3:
	mov	r2, #1	@,
	bl	__write	@
.LVL4:
	.loc 1 37 0
	add	sp, sp, #4	@,,
.LVL5:
	@ sp needed	@
	pop	{r1}
	bx	r1
	.cfi_endproc
.LFE1:
	.size	write1, .-write1
	.align	2
	.global	putchar
	.code	16
	.thumb_func
	.type	putchar, %function
putchar:
.LFB2:
	.loc 1 40 0
	.cfi_startproc
.LVL6:
	push	{r4, lr}	@
	.cfi_def_cfa_offset 8
	.cfi_offset 4, -8
	.cfi_offset 14, -4
	mov	r4, r1	@ c, c
	.loc 1 41 0
	mov	r1, #255	@ tmp114,
.LVL7:
	and	r1, r4	@ D.1041, c
	bl	write1	@
.LVL8:
	.loc 1 43 0
	mov	r0, r4	@, c
	@ sp needed	@
.LVL9:
	pop	{r4}
	pop	{r1}
	bx	r1
	.cfi_endproc
.LFE2:
	.size	putchar, .-putchar
	.align	2
	.global	puts
	.code	16
	.thumb_func
	.type	puts, %function
puts:
.LFB3:
	.loc 1 46 0
	.cfi_startproc
.LVL10:
	push	{r4, r5, lr}	@
	.cfi_def_cfa_offset 12
	.cfi_offset 4, -12
	.cfi_offset 5, -8
	.cfi_offset 14, -4
	mov	r5, r0	@ fd, fd
	mov	r4, r1	@ str, str
	.loc 1 47 0
	ldrb	r1, [r1]	@ D.1049, *str_3(D)
.LVL11:
	cmp	r1, #0	@ D.1049,
	beq	.L5	@,
.LVL12:
.L7:
	.loc 1 48 0 discriminator 2
	mov	r0, r5	@, fd
	bl	putchar	@
.LVL13:
	.loc 1 47 0 discriminator 2
	add	r4, r4, #1	@ str,
.LVL14:
	ldrb	r1, [r4]	@ D.1049, MEM[base: str_9, offset: 0B]
	cmp	r1, #0	@ D.1049,
	bne	.L7	@,
.L5:
	.loc 1 50 0
	mov	r0, #0	@,
	@ sp needed	@
.LVL15:
.LVL16:
	pop	{r4, r5}
	pop	{r1}
	bx	r1
	.cfi_endproc
.LFE3:
	.size	puts, .-puts
	.align	2
	.global	putxval
	.code	16
	.thumb_func
	.type	putxval, %function
putxval:
.LFB4:
	.loc 1 83 0
	.cfi_startproc
.LVL17:
	push	{r4, r5, r6, r7, lr}	@
	.cfi_def_cfa_offset 20
	.cfi_offset 4, -20
	.cfi_offset 5, -16
	.cfi_offset 6, -12
	.cfi_offset 7, -8
	.cfi_offset 14, -4
	sub	sp, sp, #20	@,,
	.cfi_def_cfa_offset 40
.LVL18:
	.loc 1 88 0
	mov	r3, #0	@ tmp126,
	mov	r4, sp	@ tmp162,
	strb	r3, [r4, #16]	@ tmp126, MEM[(char *)&buf + 16B]
	.loc 1 90 0
	cmp	r1, #0	@ value,
	bne	.L10	@,
	.loc 1 91 0
	neg	r3, r2	@ tmp155, column
	adc	r3, r3, r2	@ tmp155, column
	add	r2, r2, r3	@ column, column, tmp155
.LVL19:
.L10:
	.loc 1 83 0
	mov	r4, #15	@ p,
	add	r4, r4, sp	@ p,
	.loc 1 94 0
	ldr	r7, .L14	@ tmp160,
	mov	r6, #15	@ tmp161,
	b	.L11	@
.LVL20:
.L13:
	sub	r4, r4, #1	@ p,
.LVL21:
	mov	r5, r6	@ D.1058, tmp161
	and	r5, r1	@ D.1058, value
	ldrb	r5, [r7, r5]	@ tmp141,* D.1058
	strb	r5, [r4, #1]	@ tmp141, MEM[base: p_20, offset: 1B]
	.loc 1 95 0
	lsr	r1, r1, #4	@ value, value,
.LVL22:
	.loc 1 96 0
	sub	r5, r3, #1	@ tmp159, D.1057
	sbc	r3, r3, r5	@ tmp158, D.1057, tmp159
	sub	r2, r2, r3	@ column, column, tmp158
.LVL23:
.L11:
	.loc 1 93 0
	mov	r3, r2	@ D.1057, column
	sub	r5, r3, #1	@ tmp145, D.1057
	sbc	r3, r3, r5	@ D.1057, D.1057, tmp145
	cmp	r3, #0	@ D.1057,
	bne	.L13	@,
	cmp	r1, #0	@ value,
	bne	.L13	@,
	.loc 1 99 0
	add	r1, r4, #1	@ D.1060, p,
.LVL24:
	bl	puts	@
.LVL25:
	.loc 1 102 0
	mov	r0, #0	@,
	add	sp, sp, #20	@,,
	@ sp needed	@
.LVL26:
	pop	{r4, r5, r6, r7}
	pop	{r1}
	bx	r1
.L15:
	.align	2
.L14:
	.word	.LC2
	.cfi_endproc
.LFE4:
	.size	putxval, .-putxval
	.align	2
	.global	main
	.code	16
	.thumb_func
	.type	main, %function
main:
.LFB5:
	.loc 1 105 0
	.cfi_startproc
	push	{lr}	@
	.cfi_def_cfa_offset 4
	.cfi_offset 14, -4
.LVL27:
	.loc 1 107 0
	mov	r0, #1	@,
	ldr	r1, .L17	@,
	bl	puts	@
.LVL28:
	.loc 1 108 0
	ldr	r3, .L17+4	@ tmp114,
	ldr	r1, [r3]	@ data_value, data_value
	mov	r0, #1	@,
	mov	r2, #0	@,
	bl	putxval	@
.LVL29:
	.loc 1 109 0
	mov	r0, #1	@,
	ldr	r1, .L17+8	@,
	bl	puts	@
.LVL30:
	.loc 1 110 0
	mov	r0, #0	@,
	bl	exit	@
.LVL31:
.L18:
	.align	2
.L17:
	.word	.LC4
	.word	.LANCHOR0
	.word	.LC7
	.cfi_endproc
.LFE5:
	.size	main, .-main
	.comm	bss_value,4,4
	.global	data_value
	.data
	.align	2
	.set	.LANCHOR0,. + 0
	.type	data_value, %object
	.size	data_value, 4
data_value:
	.word	-1414661426
	.section	.rodata.str1.4,"aMS",%progbits,1
	.align	2
.LC2:
	.ascii	"0123456789abcdef\000"
	.space	3
.LC4:
	.ascii	"Hello World! \000"
	.space	2
.LC7:
	.ascii	" This architecture is arm16-elf\012\000"
	.text
.Letext0:
	.file 2 "syscall.h"