	.file	"i386-elf.c"
	.text
.Ltext0:
	.globl	exit
	.type	exit, @function
exit:
.LFB0:
	.file 1 "i386-elf.c"
	.loc 1 30 0
	.cfi_startproc
.LVL0:
	subl	$24, %esp
	.cfi_def_cfa_offset 28
	.loc 1 31 0
	pushl	28(%esp)
	.cfi_def_cfa_offset 32
	call	__exit
.LVL1:
	.cfi_endproc
.LFE0:
	.size	exit, .-exit
	.globl	write1
	.type	write1, @function
write1:
.LFB1:
	.loc 1 35 0
	.cfi_startproc
.LVL2:
	subl	$32, %esp
	.cfi_def_cfa_offset 36
	movl	40(%esp), %eax
	movb	%al, 16(%esp)
	.loc 1 36 0
	pushl	$1
	.cfi_def_cfa_offset 40
	leal	20(%esp), %eax
	pushl	%eax
	.cfi_def_cfa_offset 44
	pushl	44(%esp)
	.cfi_def_cfa_offset 48
	call	__write
.LVL3:
	.loc 1 37 0
	addl	$44, %esp
	.cfi_def_cfa_offset 4
	ret
	.cfi_endproc
.LFE1:
	.size	write1, .-write1
	.globl	putchar
	.type	putchar, @function
putchar:
.LFB2:
	.loc 1 40 0
	.cfi_startproc
.LVL4:
	subl	$20, %esp
	.cfi_def_cfa_offset 24
	.loc 1 41 0
	movzbl	28(%esp), %eax
	pushl	%eax
	.cfi_def_cfa_offset 28
	pushl	28(%esp)
	.cfi_def_cfa_offset 32
	call	write1
.LVL5:
	.loc 1 43 0
	movl	36(%esp), %eax
	addl	$28, %esp
	.cfi_def_cfa_offset 4
	ret
	.cfi_endproc
.LFE2:
	.size	putchar, .-putchar
	.globl	puts
	.type	puts, @function
puts:
.LFB3:
	.loc 1 46 0
	.cfi_startproc
.LVL6:
	pushl	%esi
	.cfi_def_cfa_offset 8
	.cfi_offset 6, -8
	pushl	%ebx
	.cfi_def_cfa_offset 12
	.cfi_offset 3, -12
	subl	$4, %esp
	.cfi_def_cfa_offset 16
	movl	16(%esp), %esi
	movl	20(%esp), %ebx
.LVL7:
	.loc 1 47 0
	movb	(%ebx), %al
	testb	%al, %al
	je	.L8
.L10:
	.loc 1 48 0 discriminator 2
	subl	$8, %esp
	.cfi_def_cfa_offset 24
	movsbl	%al, %eax
	pushl	%eax
	.cfi_def_cfa_offset 28
	pushl	%esi
	.cfi_def_cfa_offset 32
	call	putchar
.LVL8:
	.loc 1 47 0 discriminator 2
	incl	%ebx
.LVL9:
	movb	(%ebx), %al
	addl	$16, %esp
	.cfi_def_cfa_offset 16
	testb	%al, %al
	jne	.L10
.L8:
	.loc 1 50 0
	movl	$0, %eax
	addl	$4, %esp
	.cfi_def_cfa_offset 12
	popl	%ebx
	.cfi_restore 3
	.cfi_def_cfa_offset 8
.LVL10:
	popl	%esi
	.cfi_restore 6
	.cfi_def_cfa_offset 4
	ret
	.cfi_endproc
.LFE3:
	.size	puts, .-puts
	.section	.rodata.str1.1,"aMS",@progbits,1
.LC0:
	.string	"0123456789abcdef"
	.text
	.globl	putxval
	.type	putxval, @function
putxval:
.LFB4:
	.loc 1 83 0
	.cfi_startproc
.LVL11:
	pushl	%ebx
	.cfi_def_cfa_offset 8
	.cfi_offset 3, -8
	subl	$40, %esp
	.cfi_def_cfa_offset 48
	movl	52(%esp), %edx
	movl	56(%esp), %ecx
.LVL12:
	.loc 1 88 0
	movb	$0, 31(%esp)
	.loc 1 90 0
	testl	%edx, %edx
	jne	.L14
	.loc 1 90 0 is_stmt 0 discriminator 1
	testl	%ecx, %ecx
	jne	.L14
	.loc 1 91 0 is_stmt 1
	movb	$1, %cl
.L14:
	leal	29(%esp), %eax
	jmp	.L15
.LVL13:
.L17:
	.loc 1 94 0
	movl	%edx, %ebx
	andl	$15, %ebx
	movb	.LC0(%ebx), %bl
	movb	%bl, 1(%eax)
	.loc 1 95 0
	shrl	$4, %edx
.LVL14:
	.loc 1 96 0
	testl	%ecx, %ecx
	je	.L16
.LVL15:
.L19:
	.loc 1 96 0 is_stmt 0 discriminator 1
	decl	%ecx
.LVL16:
.L16:
	decl	%eax
.LVL17:
.L15:
	leal	1(%eax), %ebx
.LVL18:
	.loc 1 93 0 is_stmt 1
	testl	%edx, %edx
	jne	.L17
	.loc 1 93 0 is_stmt 0 discriminator 1
	testl	%ecx, %ecx
	je	.L21
.LVL19:
	.loc 1 94 0 is_stmt 1
	movb	$48, 1(%eax)
.LVL20:
	jmp	.L19
.LVL21:
.L21:
	.loc 1 99 0
	subl	$8, %esp
	.cfi_def_cfa_offset 56
	incl	%ebx
.LVL22:
	pushl	%ebx
	.cfi_def_cfa_offset 60
	pushl	60(%esp)
	.cfi_def_cfa_offset 64
	call	puts
.LVL23:
	.loc 1 102 0
	movl	$0, %eax
	addl	$56, %esp
	.cfi_def_cfa_offset 8
	popl	%ebx
	.cfi_restore 3
	.cfi_def_cfa_offset 4
.LVL24:
	ret
	.cfi_endproc
.LFE4:
	.size	putxval, .-putxval
	.section	.rodata.str1.1
.LC1:
	.string	"Hello World! "
	.section	.rodata.str1.4,"aMS",@progbits,1
	.align 4
.LC2:
	.string	" This architecture is i386-elf\n"
	.text
	.globl	main
	.type	main, @function
main:
.LFB5:
	.loc 1 105 0
	.cfi_startproc
	leal	4(%esp), %ecx
	.cfi_def_cfa 1, 0
	andl	$-16, %esp
	pushl	-4(%ecx)
	pushl	%ebp
	.cfi_escape 0x10,0x5,0x2,0x75,0
	movl	%esp, %ebp
	pushl	%ecx
	.cfi_escape 0xf,0x3,0x75,0x7c,0x6
	subl	$12, %esp
.LVL25:
	.loc 1 107 0
	pushl	$.LC1
	pushl	$1
	call	puts
.LVL26:
	.loc 1 108 0
	addl	$12, %esp
	pushl	$0
	pushl	data_value
	pushl	$1
	call	putxval
.LVL27:
	.loc 1 109 0
	addl	$8, %esp
	pushl	$.LC2
	pushl	$1
	call	puts
.LVL28:
	.loc 1 110 0
	movl	$0, (%esp)
	call	exit
.LVL29:
	.cfi_endproc
.LFE5:
	.size	main, .-main
	.comm	bss_value,4,4
	.globl	data_value
	.data
	.align 4
	.type	data_value, @object
	.size	data_value, 4
data_value:
	.long	-1414661426
	.text
.Letext0:
	.file 2 "syscall.h"