	.file	"sh-elf.c"
	.text
! GNU C (GCC) version 4.9.4 (sh-elf)
!	compiled by GNU C version 4.8.5, GMP version 6.1.2, MPFR version 3.1.5, MPC version 1.0.3
! GGC heuristics: --param ggc-min-expand=100 --param ggc-min-heapsize=131072
! options passed:  -nostdinc -D ___FreeBSD___ -D ARCH="sh-elf"
! -D USE_SYSCALL_WRAPPER sh-elf.c -auxbase-strip sh-elf.s -g -O -Wall
! -fno-builtin -fverbose-asm -fomit-frame-pointer -fno-inline
! options enabled:  -faggressive-loop-optimizations -fauto-inc-dec
! -fbranch-count-reg -fcombine-stack-adjustments -fcommon -fcompare-elim
! -fcprop-registers -fdefer-pop -fdelayed-branch
! -fdelete-null-pointer-checks -fdwarf2-cfi-asm -fearly-inlining
! -feliminate-unused-debug-types -fforward-propagate -ffunction-cse
! -fgcse-lm -fgnu-runtime -fgnu-unique -fguess-branch-probability -fident
! -fif-conversion -fif-conversion2 -finline-atomics
! -finline-functions-called-once -fipa-profile -fipa-pure-const
! -fipa-reference -fira-hoist-pressure -fira-share-save-slots
! -fira-share-spill-slots -fivopts -fkeep-static-consts
! -fleading-underscore -flifetime-dse -fmath-errno -fmerge-constants
! -fmerge-debug-strings -fmove-loop-invariants -fomit-frame-pointer
! -fpeephole -fprefetch-loop-arrays -freg-struct-return
! -fsched-critical-path-heuristic -fsched-dep-count-heuristic
! -fsched-group-heuristic -fsched-interblock -fsched-last-insn-heuristic
! -fsched-rank-heuristic -fsched-spec -fsched-spec-insn-heuristic
! -fsched-stalled-insns-dep -fshow-column -fshrink-wrap -fsigned-zeros
! -fsplit-ivs-in-unroller -fsplit-wide-types -fstrict-volatile-bitfields
! -fsync-libcalls -ftoplevel-reorder -ftrapping-math -ftree-bit-ccp
! -ftree-ccp -ftree-ch -ftree-coalesce-vars -ftree-copy-prop
! -ftree-copyrename -ftree-cselim -ftree-dce -ftree-dominator-opts
! -ftree-dse -ftree-forwprop -ftree-fre -ftree-loop-if-convert
! -ftree-loop-im -ftree-loop-ivcanon -ftree-loop-optimize
! -ftree-parallelize-loops= -ftree-phiprop -ftree-pta -ftree-reassoc
! -ftree-scev-cprop -ftree-sink -ftree-slsr -ftree-sra -ftree-ter
! -funit-at-a-time -fvar-tracking -fvar-tracking-assignments -fverbose-asm
! -fzero-initialized-in-bss -maccumulate-outgoing-args -mb

	.text
.Ltext0:
	.cfi_sections	.debug_frame
	.align 1
	.global	___exit
	.type	___exit, @function
___exit:
.LFB0:
	.file 1 "sh-elf.c"
	.loc 1 8 0
	.cfi_startproc
.LVL0:
	sts.l	pr,@-r15	!,
	.cfi_def_cfa_offset 4
	.cfi_offset 17, -4
	mov	r4,r5	! status, status
.LVL1:
	.loc 1 9 0
	mov.l	.L3,r1	!, tmp161
	jsr	@r1	! tmp161
	mov	#0,r4	!,
.LVL2:
.L4:
	.align 2
.L3:
	.long	___r_exit
	.cfi_endproc
.LFE0:
	.size	___exit, .-___exit
	.align 1
	.global	___read
	.type	___read, @function
___read:
.LFB1:
	.loc 1 12 0
	.cfi_startproc
.LVL3:
	sts.l	pr,@-r15	!,
	.cfi_def_cfa_offset 4
	.cfi_offset 17, -4
	mov	r4,r2	! fd, fd
	mov	r5,r1	! buffer, buffer
	mov	r6,r7	! size, size
	.loc 1 13 0
	mov	#0,r4	!,
.LVL4:
	mov	r2,r5	! fd,
.LVL5:
	mov.l	.L7,r0	!, tmp165
	jsr	@r0	! tmp165
	mov	r1,r6	! buffer,
.LVL6:
	.loc 1 14 0
	lds.l	@r15+,pr	!,
	.cfi_restore 17
	.cfi_def_cfa_offset 0
	rts	
	nop
.L8:
	.align 2
.L7:
	.long	___r_read
	.cfi_endproc
.LFE1:
	.size	___read, .-___read
	.align 1
	.global	___write
	.type	___write, @function
___write:
.LFB2:
	.loc 1 16 0
	.cfi_startproc
.LVL7:
	sts.l	pr,@-r15	!,
	.cfi_def_cfa_offset 4
	.cfi_offset 17, -4
	mov	r4,r2	! fd, fd
	mov	r5,r1	! buffer, buffer
	mov	r6,r7	! size, size
	.loc 1 17 0
	mov	#0,r4	!,
.LVL8:
	mov	r2,r5	! fd,
.LVL9:
	mov.l	.L11,r0	!, tmp165
	jsr	@r0	! tmp165
	mov	r1,r6	! buffer,
.LVL10:
	.loc 1 18 0
	lds.l	@r15+,pr	!,
	.cfi_restore 17
	.cfi_def_cfa_offset 0
	rts	
	nop
.L12:
	.align 2
.L11:
	.long	___r_write
	.cfi_endproc
.LFE2:
	.size	___write, .-___write
	.align 1
	.global	___open
	.type	___open, @function
___open:
.LFB3:
	.loc 1 20 0
	.cfi_startproc
.LVL11:
	sts.l	pr,@-r15	!,
	.cfi_def_cfa_offset 4
	.cfi_offset 17, -4
	mov	r4,r2	! path, path
	mov	r5,r1	! flags, flags
	mov	r6,r7	! mode, mode
	.loc 1 21 0
	mov	#0,r4	!,
.LVL12:
	mov	r2,r5	! path,
.LVL13:
	mov.l	.L15,r0	!, tmp165
	jsr	@r0	! tmp165
	mov	r1,r6	! flags,
.LVL14:
	.loc 1 22 0
	lds.l	@r15+,pr	!,
	.cfi_restore 17
	.cfi_def_cfa_offset 0
	rts	
	nop
.L16:
	.align 2
.L15:
	.long	___r_open
	.cfi_endproc
.LFE3:
	.size	___open, .-___open
	.align 1
	.global	___close
	.type	___close, @function
___close:
.LFB4:
	.loc 1 24 0
	.cfi_startproc
.LVL15:
	sts.l	pr,@-r15	!,
	.cfi_def_cfa_offset 4
	.cfi_offset 17, -4
	mov	r4,r5	! fd, fd
.LVL16:
	.loc 1 25 0
	mov.l	.L19,r0	!, tmp163
	jsr	@r0	! tmp163
	mov	#0,r4	!,
.LVL17:
	.loc 1 26 0
	lds.l	@r15+,pr	!,
	.cfi_restore 17
	.cfi_def_cfa_offset 0
	rts	
	nop
.L20:
	.align 2
.L19:
	.long	___r_close
	.cfi_endproc
.LFE4:
	.size	___close, .-___close
	.align 1
	.global	_exit
	.type	_exit, @function
_exit:
.LFB5:
	.loc 1 30 0
	.cfi_startproc
.LVL18:
	sts.l	pr,@-r15	!,
	.cfi_def_cfa_offset 4
	.cfi_offset 17, -4
	.loc 1 31 0
	mov.l	.L23,r1	!, tmp161
	jsr	@r1
	nop	! tmp161
.LVL19:
.L24:
	.align 2
.L23:
	.long	___exit
	.cfi_endproc
.LFE5:
	.size	_exit, .-_exit
	.align 1
	.global	_write1
	.type	_write1, @function
_write1:
.LFB6:
	.loc 1 35 0
	.cfi_startproc
.LVL20:
	sts.l	pr,@-r15	!,
	.cfi_def_cfa_offset 4
	.cfi_offset 17, -4
	add	#-4,r15	!,
	.cfi_def_cfa_offset 8
	mov	r15,r1	!, tmp164
	mov.b	r5,@r1	!, c
	.loc 1 36 0
	mov	r15,r5	!,
.LVL21:
	mov.l	.L27,r0	!, tmp166
	jsr	@r0	! tmp166
	mov	#1,r6	!,
.LVL22:
	.loc 1 37 0
	add	#4,r15	!,
	.cfi_def_cfa_offset 4
.LVL23:
	lds.l	@r15+,pr	!,
	.cfi_restore 17
	.cfi_def_cfa_offset 0
.LVL24:
	rts	
	nop
.L28:
	.align 2
.L27:
	.long	___write
	.cfi_endproc
.LFE6:
	.size	_write1, .-_write1
	.align 1
	.global	_putchar
	.type	_putchar, @function
_putchar:
.LFB7:
	.loc 1 40 0
	.cfi_startproc
.LVL25:
	mov.l	r8,@-r15	!,
	.cfi_def_cfa_offset 4
	.cfi_offset 8, -4
	sts.l	pr,@-r15	!,
	.cfi_def_cfa_offset 8
	.cfi_offset 17, -8
	mov	r5,r8	! c, c
.LVL26:
	.loc 1 41 0
	mov.l	.L31,r0	!, tmp165
	jsr	@r0	! tmp165
	extu.b	r5,r5	! c,
.LVL27:
	.loc 1 43 0
	mov	r8,r0	! c,
	lds.l	@r15+,pr	!,
	.cfi_restore 17
	.cfi_def_cfa_offset 4
.LVL28:
	rts	
	mov.l	@r15+,r8	!,
	.cfi_def_cfa_offset 0
	.cfi_restore 8
.L32:
	.align 2
.L31:
	.long	_write1
	.cfi_endproc
.LFE7:
	.size	_putchar, .-_putchar
	.align 1
	.global	_puts
	.type	_puts, @function
_puts:
.LFB8:
	.loc 1 46 0
	.cfi_startproc
.LVL29:
	mov.l	r8,@-r15	!,
	.cfi_def_cfa_offset 4
	.cfi_offset 8, -4
	mov.l	r9,@-r15	!,
	.cfi_def_cfa_offset 8
	.cfi_offset 9, -8
	mov.l	r10,@-r15	!,
	.cfi_def_cfa_offset 12
	.cfi_offset 10, -12
	sts.l	pr,@-r15	!,
	.cfi_def_cfa_offset 16
	.cfi_offset 17, -16
	mov	r5,r8	! str, str
	.loc 1 47 0
	mov.b	@r5,r5	! *str_3(D), D.1087
.LVL30:
	tst	r5,r5	! D.1087
	bt	.L34	!
	mov	r4,r9	! fd, fd
	add	#1,r8	!, ivtmp.27
.LVL31:
	.loc 1 48 0
	mov.l	.L38,r10	!, tmp195
.LVL32:
.L35:
	.loc 1 48 0 is_stmt 0 discriminator 2
	jsr	@r10	! tmp195
	mov	r9,r4	! fd,
.LVL33:
	.loc 1 47 0 is_stmt 1 discriminator 2
	mov.b	@r8+,r5	! MEM[base: _17, offset: 0B], D.1087
.LVL34:
	tst	r5,r5	! D.1087
	bf	.L35	!
.LVL35:
.L34:
	.loc 1 50 0
	mov	#0,r0	!,
	lds.l	@r15+,pr	!,
	.cfi_restore 17
	.cfi_def_cfa_offset 12
	mov.l	@r15+,r10	!,
	.cfi_restore 10
	.cfi_def_cfa_offset 8
	mov.l	@r15+,r9	!,
	.cfi_restore 9
	.cfi_def_cfa_offset 4
	rts	
	mov.l	@r15+,r8	!,
	.cfi_def_cfa_offset 0
	.cfi_restore 8
.L39:
	.align 2
.L38:
	.long	_putchar
	.cfi_endproc
.LFE8:
	.size	_puts, .-_puts
	.section	.rodata.str1.4,"aMS",@progbits,1
	.align 2
.LC0:
	.string	"0123456789abcdef"
	.text
	.align 1
	.global	_putxval
	.type	_putxval, @function
_putxval:
.LFB9:
	.loc 1 83 0
	.cfi_startproc
.LVL36:
	mov.l	r8,@-r15	!,
	.cfi_def_cfa_offset 4
	.cfi_offset 8, -4
	mov.l	r9,@-r15	!,
	.cfi_def_cfa_offset 8
	.cfi_offset 9, -8
	sts.l	pr,@-r15	!,
	.cfi_def_cfa_offset 12
	.cfi_offset 17, -12
	add	#-20,r15	!,
	.cfi_def_cfa_offset 32
	mov	r5,r9	! value, value
.LVL37:
	.loc 1 88 0
	mov	#0,r2	!, tmp177
	mov	r15,r1	!, tmp176
	add	#4,r1	!, tmp176
	mov	r2,r0	! tmp177,
	mov.b	r0,@(12,r1)	!,, tmp176
	.loc 1 90 0
	tst	r5,r5	! value
	bf	.L41	!
	tst	r6,r6	! column
	movt	r1	! tmp206
	tst	r1,r1	! tmp206
	.loc 1 91 0
	mov	#-1,r1	!, tmp200
	negc	r1,r1	! tmp200, tmp199
	add	r1,r6	! tmp199, column
.LVL38:
.L41:
	mov	r15,r2	!, ivtmp.33
	add	#15,r2	!, ivtmp.33
	.loc 1 94 0
	mov.l	.L45,r8	!, tmp205
	.loc 1 93 0
	bra	.L42	!
	mov	#-1,r3	!, tmp204
.LVL39:
	.align 1
.L44:
	.loc 1 94 0
	mov	#15,r7	!, D.1101
	and	r9,r7	! value, D.1101
	mov	r7,r0	! D.1101,
	mov.b	@(r0,r8),r7	!,
	mov.b	r7,@r5	! tmp187, MEM[base: p_3, offset: 0B]
	.loc 1 95 0
	shlr2	r9	!, value
.LVL40:
	shlr2	r9	!, value
.LVL41:
	.loc 1 96 0
	tst	r1,r1	! D.1100
	negc	r3,r1	! tmp204, tmp202
	sub	r1,r6	! tmp202, column
.LVL42:
	add	#-1,r2	!, ivtmp.33
.LVL43:
.L42:
	mov	r2,r5	! ivtmp.33, p
.LVL44:
	.loc 1 93 0
	tst	r6,r6	! column
	negc	r3,r1	! tmp204, tmp189
	tst	r1,r1	! D.1100
	bf	.L44	!
	tst	r9,r9	! value
	bf	.L44	!
	.loc 1 99 0
	mov.l	.L46,r0	!, tmp196
	jsr	@r0	! tmp196
	add	#1,r5	!,
.LVL45:
	.loc 1 102 0
	mov	#0,r0	!,
	add	#20,r15	!,
	.cfi_def_cfa_offset 12
	lds.l	@r15+,pr	!,
	.cfi_restore 17
	.cfi_def_cfa_offset 8
	mov.l	@r15+,r9	!,
	.cfi_restore 9
	.cfi_def_cfa_offset 4
.LVL46:
	rts	
	mov.l	@r15+,r8	!,
	.cfi_def_cfa_offset 0
	.cfi_restore 8
.L47:
	.align 2
.L45:
	.long	.LC0
.L46:
	.long	_puts
	.cfi_endproc
.LFE9:
	.size	_putxval, .-_putxval
	.section	.rodata.str1.4
	.align 2
.LC1:
	.string	"Hello World! "
	.align 2
.LC2:
	.string	" This architecture is sh-elf\n"
	.text
	.align 1
	.global	_main
	.type	_main, @function
_main:
.LFB10:
	.loc 1 105 0
	.cfi_startproc
	mov.l	r8,@-r15	!,
	.cfi_def_cfa_offset 4
	.cfi_offset 8, -4
	sts.l	pr,@-r15	!,
	.cfi_def_cfa_offset 8
	.cfi_offset 17, -8
.LVL47:
	.loc 1 107 0
	mov.l	.L50,r8	!, tmp164
	mov.l	.L51,r5	!,
	jsr	@r8	! tmp164
	mov	#1,r4	!,
.LVL48:
	.loc 1 108 0
	mov	#1,r4	!,
	mov.l	.L52,r1	!, tmp165
	mov.l	@r1,r5	! data_value,
	mov.l	.L53,r0	!, tmp166
	jsr	@r0	! tmp166
	mov	#0,r6	!,
.LVL49:
	.loc 1 109 0
	mov.l	.L54,r5	!,
	jsr	@r8	! tmp164
	mov	#1,r4	!,
.LVL50:
	.loc 1 110 0
	mov.l	.L55,r1	!, tmp169
	jsr	@r1	! tmp169
	mov	#0,r4	!,
.LVL51:
.L56:
	.align 2
.L50:
	.long	_puts
.L51:
	.long	.LC1
.L52:
	.long	_data_value
.L53:
	.long	_putxval
.L54:
	.long	.LC2
.L55:
	.long	_exit
	.cfi_endproc
.LFE10:
	.size	_main, .-_main
	.comm	_bss_value,4,4
	.global	_data_value
	.data
	.align 2
	.type	_data_value, @object
	.size	_data_value, 4
_data_value:
	.long	-1414661426
	.text
.Letext0: